(lp0
(lp1
(F26.0
I63
tp2
a(F55.0
I137
tp3
a(F108.0
I55
tp4
a(F114.0
I101
tp5
a(F484.0
I22
tp6
a(F519.0
I128
tp7
a(F543.0
I108
tp8
a(F660.0
I48
tp9
a(F707.0
I90
tp10
a(F852.0
I55
tp11
a(F880.0
I24
tp12
a(F1122.0
I89
tp13
a(F1149.0
I57
tp14
a(F1309.0
I105
tp15
a(F1324.0
I140
tp16
a(F1372.0
I86
tp17
a(F1414.0
I69
tp18
a(F1452.0
I66
tp19
a(F1513.0
I49
tp20
a(F1618.0
I111
tp21
a(F1669.0
I62
tp22
a(F1696.0
I98
tp23
a(F1790.0
I140
tp24
a(F1816.0
I126
tp25
a(F1847.0
I127
tp26
a(F1866.0
I64
tp27
a(F1877.0
I48
tp28
a(F1910.0
I65
tp29
a(F2015.0
I49
tp30
a(F2034.0
I120
tp31
a(F2146.0
I110
tp32
a(F2235.0
I78
tp33
a(F2327.0
I85
tp34
a(F2404.0
I80
tp35
a(F2422.0
I79
tp36
a(F2486.0
I95
tp37
a(F2515.0
I67
tp38
a(F2552.0
I130
tp39
a(F2588.0
I58
tp40
a(F2629.0
I87
tp41
a(F2646.0
I67
tp42
a(F2700.0
I75
tp43
a(F2939.0
I47
tp44
a(F3012.0
I50
tp45
a(F3111.0
I83
tp46
a(F3190.0
I74
tp47
a(F3280.0
I95
tp48
a(F3418.0
I63
tp49
a(F3452.0
I49
tp50
a(F3558.0
I129
tp51
a(F3590.0
I41
tp52
a(F3662.0
I140
tp53
a(F3700.0
I49
tp54
a(F3811.0
I136
tp55
a(F3921.0
I103
tp56
a(F3992.0
I86
tp57
a(F4108.0
I94
tp58
a(F4188.0
I79
tp59
a(F4195.0
I65
tp60
a(F4242.0
I39
tp61
a(F4380.0
I89
tp62
a(F4497.0
I76
tp63
a(F4594.0
I76
tp64
a(F4746.0
I106
tp65
a(F4780.0
I71
tp66
a(F4854.0
I70
tp67
a(F4996.0
I113
tp68
a(F5083.0
I114
tp69
a(F5156.0
I87
tp70
a(F5220.0
I87
tp71
a(F5239.0
I54
tp72
a(F5300.0
I91
tp73
a(F5536.0
I127
tp74
a(F5633.0
I72
tp75
a(F5754.0
I78
tp76
a(F5841.0
I114
tp77
a(F6039.0
I118
tp78
a(F6121.0
I101
tp79
aa(lp80
(F410.0
I72
tp81
a(F440.0
I46
tp82
a(F515.0
I36
tp83
a(F840.0
I38
tp84
a(F869.0
I30
tp85
a(F1014.0
I65
tp86
a(F1083.0
I99
tp87
a(F1175.0
I123
tp88
a(F1318.0
I25
tp89
a(F1375.0
I104
tp90
a(F1384.0
I76
tp91
a(F1398.0
I39
tp92
a(F1486.0
I56
tp93
a(F1709.0
I68
tp94
a(F1802.0
I74
tp95
a(F1859.0
I72
tp96
a(F1910.0
I90
tp97
a(F2459.0
I43
tp98
a(F2633.0
I46
tp99
a(F2805.0
I77
tp100
a(F2863.0
I31
tp101
a(F2906.0
I28
tp102
a(F2969.0
I32
tp103
a(F3088.0
I61
tp104
a(F3126.0
I69
tp105
a(F3168.0
I107
tp106
a(F3195.0
I96
tp107
a(F3219.0
I127
tp108
a(F3269.0
I34
tp109
a(F3416.0
I59
tp110
a(F3469.0
I53
tp111
a(F3743.0
I64
tp112
a(F3744.0
I81
tp113
a(F3768.0
I19
tp114
a(F3841.0
I66
tp115
a(F3877.0
I66
tp116
a(F3912.0
I140
tp117
a(F3953.0
I108
tp118
a(F3986.0
I27
tp119
a(F4002.0
I31
tp120
a(F4006.0
I52
tp121
a(F4032.0
I99
tp122
a(F4093.0
I55
tp123
a(F4129.0
I59
tp124
a(F4186.0
I134
tp125
a(F4251.0
I99
tp126
a(F4349.0
I139
tp127
a(F4400.0
I140
tp128
a(F4519.0
I54
tp129
a(F4565.0
I89
tp130
a(F4604.0
I50
tp131
a(F4626.0
I51
tp132
a(F4640.0
I51
tp133
a(F4651.0
I51
tp134
a(F4663.0
I51
tp135
a(F4708.0
I92
tp136
a(F4791.0
I140
tp137
a(F4886.0
I91
tp138
a(F4913.0
I47
tp139
a(F5047.0
I81
tp140
a(F5134.0
I69
tp141
a(F5210.0
I27
tp142
a(F5233.0
I51
tp143
a(F5330.0
I27
tp144
a(F5354.0
I22
tp145
a(F5380.0
I61
tp146
a(F5459.0
I76
tp147
a(F5467.0
I29
tp148
a(F5511.0
I60
tp149
a(F5592.0
I89
tp150
a(F5622.0
I82
tp151
a(F5684.0
I59
tp152
a(F5807.0
I81
tp153
a(F5879.0
I100
tp154
a(F5887.0
I67
tp155
a(F6014.0
I37
tp156
a(F6035.0
I44
tp157
aa(lp158
(F449.0
I85
tp159
a(F1397.0
I21
tp160
a(F1497.0
I47
tp161
a(F1518.0
I53
tp162
a(F1565.0
I43
tp163
a(F1795.0
I85
tp164
a(F1811.0
I28
tp165
a(F2037.0
I52
tp166
a(F2170.0
I52
tp167
a(F2276.0
I113
tp168
a(F2305.0
I36
tp169
a(F2311.0
I140
tp170
a(F2384.0
I44
tp171
a(F2420.0
I93
tp172
a(F2438.0
I36
tp173
a(F2517.0
I83
tp174
a(F2626.0
I63
tp175
a(F2708.0
I89
tp176
a(F2717.0
I82
tp177
a(F2744.0
I45
tp178
a(F2785.0
I95
tp179
a(F2791.0
I65
tp180
a(F2829.0
I82
tp181
a(F2843.0
I26
tp182
a(F2877.0
I93
tp183
a(F3138.0
I60
tp184
a(F3217.0
I49
tp185
a(F3328.0
I86
tp186
a(F3356.0
I59
tp187
a(F3604.0
I35
tp188
a(F3610.0
I97
tp189
a(F3668.0
I101
tp190
a(F3790.0
I66
tp191
a(F3957.0
I58
tp192
a(F3975.0
I39
tp193
a(F3979.0
I100
tp194
a(F3989.0
I31
tp195
a(F4245.0
I83
tp196
a(F4269.0
I30
tp197
a(F4366.0
I41
tp198
a(F4433.0
I45
tp199
a(F4623.0
I96
tp200
a(F4625.0
I86
tp201
a(F4643.0
I87
tp202
a(F4665.0
I88
tp203
a(F4665.0
I71
tp204
a(F4728.0
I76
tp205
a(F4921.0
I74
tp206
a(F4989.0
I34
tp207
a(F5263.0
I114
tp208
a(F5316.0
I57
tp209
a(F5321.0
I77
tp210
a(F5363.0
I57
tp211
a(F5365.0
I52
tp212
a(F5370.0
I20
tp213
a(F5414.0
I65
tp214
a(F5439.0
I62
tp215
a(F5682.0
I51
tp216
a(F5717.0
I23
tp217
a(F5895.0
I86
tp218
aa(lp219
(F104.0
I112
tp220
a(F110.0
I105
tp221
a(F116.0
I101
tp222
a(F121.0
I81
tp223
a(F149.0
I96
tp224
a(F153.0
I68
tp225
a(F164.0
I85
tp226
a(F177.0
I81
tp227
a(F182.0
I64
tp228
a(F195.0
I75
tp229
a(F206.0
I76
tp230
a(F218.0
I57
tp231
a(F230.0
I77
tp232
a(F237.0
I140
tp233
a(F266.0
I90
tp234
a(F275.0
I92
tp235
a(F286.0
I62
tp236
a(F293.0
I65
tp237
a(F300.0
I101
tp238
a(F317.0
I74
tp239
a(F319.0
I75
tp240
a(F328.0
I63
tp241
a(F335.0
I77
tp242
a(F342.0
I83
tp243
a(F348.0
I95
tp244
a(F364.0
I108
tp245
a(F369.0
I53
tp246
a(F376.0
I77
tp247
a(F393.0
I67
tp248
a(F418.0
I64
tp249
a(F425.0
I105
tp250
a(F432.0
I130
tp251
a(F441.0
I107
tp252
a(F456.0
I67
tp253
a(F470.0
I62
tp254
a(F471.0
I120
tp255
a(F483.0
I109
tp256
a(F537.0
I62
tp257
a(F562.0
I140
tp258
a(F576.0
I89
tp259
a(F690.0
I74
tp260
a(F725.0
I60
tp261
a(F746.0
I131
tp262
a(F757.0
I97
tp263
a(F776.0
I132
tp264
a(F785.0
I94
tp265
a(F795.0
I99
tp266
a(F809.0
I86
tp267
a(F815.0
I101
tp268
a(F825.0
I91
tp269
a(F831.0
I80
tp270
a(F838.0
I131
tp271
a(F846.0
I60
tp272
a(F855.0
I73
tp273
a(F880.0
I138
tp274
a(F1376.0
I71
tp275
a(F5239.0
I51
tp276
aa(lp277
(F5.0
I140
tp278
a(F34.0
I130
tp279
a(F71.0
I83
tp280
a(F395.0
I125
tp281
a(F461.0
I94
tp282
a(F674.0
I113
tp283
a(F768.0
I60
tp284
a(F846.0
I72
tp285
a(F864.0
I121
tp286
a(F887.0
I99
tp287
a(F1040.0
I135
tp288
a(F1228.0
I62
tp289
a(F1257.0
I100
tp290
a(F1426.0
I140
tp291
a(F1973.0
I118
tp292
a(F2558.0
I110
tp293
a(F2619.0
I86
tp294
a(F2923.0
I126
tp295
a(F2966.0
I140
tp296
a(F3001.0
I138
tp297
a(F3020.0
I140
tp298
a(F3095.0
I112
tp299
a(F3113.0
I140
tp300
a(F3158.0
I58
tp301
a(F3206.0
I140
tp302
a(F3208.0
I117
tp303
a(F3427.0
I137
tp304
a(F4160.0
I103
tp305
a(F4345.0
I140
tp306
a(F4424.0
I140
tp307
a(F4510.0
I115
tp308
a(F4727.0
I140
tp309
a(F5007.0
I122
tp310
a(F5031.0
I133
tp311
a(F5109.0
I135
tp312
a(F5285.0
I140
tp313
a(F5374.0
I138
tp314
a(F5412.0
I126
tp315
a(F5447.0
I140
tp316
a(F5475.0
I140
tp317
a(F5479.0
I118
tp318
a(F5502.0
I106
tp319
a(F5518.0
I57
tp320
a(F5552.0
I136
tp321
a(F5700.0
I140
tp322
a(F5722.0
I47
tp323
a(F5737.0
I137
tp324
a(F5745.0
I92
tp325
a(F5752.0
I85
tp326
a(F5874.0
I112
tp327
a(F5960.0
I117
tp328
a(F6073.0
I140
tp329
a(F6158.0
I140
tp330
aa(lp331
(F1598.0
I57
tp332
a(F1638.0
I52
tp333
a(F1687.0
I61
tp334
a(F1707.0
I48
tp335
a(F1719.0
I71
tp336
a(F1773.0
I24
tp337
a(F1918.0
I139
tp338
a(F1987.0
I136
tp339
a(F2006.0
I23
tp340
a(F2047.0
I67
tp341
a(F2151.0
I20
tp342
a(F2159.0
I82
tp343
a(F2195.0
I9
tp344
a(F2213.0
I9
tp345
a(F2257.0
I74
tp346
a(F2344.0
I83
tp347
a(F2417.0
I112
tp348
a(F2429.0
I80
tp349
a(F2553.0
I140
tp350
a(F2658.0
I138
tp351
a(F2685.0
I71
tp352
a(F2809.0
I46
tp353
a(F2964.0
I38
tp354
a(F3098.0
I119
tp355
a(F3126.0
I63
tp356
a(F3163.0
I114
tp357
a(F3194.0
I103
tp358
a(F3209.0
I92
tp359
a(F3229.0
I78
tp360
a(F3277.0
I77
tp361
a(F3341.0
I134
tp362
a(F3404.0
I112
tp363
a(F3449.0
I92
tp364
a(F3490.0
I134
tp365
a(F3506.0
I79
tp366
a(F3527.0
I80
tp367
a(F3585.0
I75
tp368
a(F3597.0
I79
tp369
a(F3611.0
I68
tp370
a(F3665.0
I97
tp371
a(F3677.0
I48
tp372
a(F3692.0
I68
tp373
a(F3700.0
I60
tp374
a(F3723.0
I100
tp375
a(F3734.0
I77
tp376
a(F3807.0
I134
tp377
a(F3840.0
I82
tp378
a(F3868.0
I79
tp379
a(F3879.0
I77
tp380
a(F3913.0
I140
tp381
a(F4128.0
I109
tp382
a(F4165.0
I120
tp383
aa(lp384
(F322.0
I32
tp385
a(F947.0
I87
tp386
a(F1092.0
I39
tp387
a(F1197.0
I140
tp388
a(F1207.0
I66
tp389
a(F1341.0
I140
tp390
a(F1693.0
I25
tp391
a(F1832.0
I122
tp392
a(F1857.0
I84
tp393
a(F2175.0
I102
tp394
a(F2469.0
I59
tp395
a(F2578.0
I43
tp396
a(F2585.0
I140
tp397
a(F2602.0
I89
tp398
a(F2937.0
I30
tp399
a(F3147.0
I56
tp400
a(F3283.0
I61
tp401
a(F3313.0
I64
tp402
a(F3374.0
I86
tp403
a(F3440.0
I98
tp404
a(F3540.0
I73
tp405
a(F3576.0
I95
tp406
a(F3601.0
I108
tp407
a(F3719.0
I102
tp408
a(F3743.0
I60
tp409
a(F3770.0
I133
tp410
a(F3831.0
I90
tp411
a(F3840.0
I20
tp412
a(F3929.0
I60
tp413
a(F3988.0
I107
tp414
a(F4014.0
I69
tp415
a(F4038.0
I63
tp416
a(F4074.0
I105
tp417
a(F4231.0
I41
tp418
a(F4278.0
I31
tp419
a(F4617.0
I122
tp420
a(F4639.0
I64
tp421
a(F4718.0
I140
tp422
a(F4855.0
I86
tp423
a(F4892.0
I62
tp424
a(F4975.0
I100
tp425
a(F5014.0
I32
tp426
a(F5027.0
I51
tp427
a(F5105.0
I56
tp428
a(F5229.0
I42
tp429
a(F5280.0
I16
tp430
a(F5427.0
I66
tp431
a(F5456.0
I55
tp432
a(F5520.0
I29
tp433
a(F5632.0
I56
tp434
a(F5795.0
I38
tp435
aa(lp436
(F90.0
I61
tp437
a(F183.0
I42
tp438
a(F258.0
I53
tp439
a(F358.0
I127
tp440
a(F453.0
I78
tp441
a(F631.0
I44
tp442
a(F682.0
I81
tp443
a(F780.0
I127
tp444
a(F918.0
I133
tp445
a(F1066.0
I48
tp446
a(F1182.0
I22
tp447
a(F1242.0
I27
tp448
a(F1481.0
I134
tp449
a(F1923.0
I86
tp450
a(F2075.0
I33
tp451
a(F2222.0
I26
tp452
a(F2415.0
I24
tp453
a(F2590.0
I49
tp454
a(F2626.0
I57
tp455
a(F2644.0
I134
tp456
a(F2683.0
I94
tp457
a(F2917.0
I134
tp458
a(F3031.0
I26
tp459
a(F3086.0
I134
tp460
a(F3239.0
I113
tp461
a(F3279.0
I29
tp462
a(F3313.0
I83
tp463
a(F3464.0
I134
tp464
a(F3554.0
I24
tp465
a(F3594.0
I134
tp466
a(F3617.0
I134
tp467
a(F3806.0
I84
tp468
a(F3884.0
I28
tp469
a(F4021.0
I33
tp470
a(F4101.0
I51
tp471
a(F4110.0
I31
tp472
a(F4126.0
I58
tp473
a(F4194.0
I110
tp474
a(F4242.0
I130
tp475
a(F4261.0
I32
tp476
a(F4308.0
I65
tp477
a(F4404.0
I28
tp478
a(F4499.0
I34
tp479
a(F4652.0
I24
tp480
a(F5095.0
I32
tp481
a(F5266.0
I28
tp482
a(F5396.0
I27
tp483
a(F5583.0
I28
tp484
a(F5706.0
I30
tp485
a(F5865.0
I32
tp486
a(F6135.0
I28
tp487
aa(lp488
(F903.0
I81
tp489
a(F1002.0
I44
tp490
a(F1184.0
I61
tp491
a(F1251.0
I26
tp492
a(F1309.0
I25
tp493
a(F1432.0
I31
tp494
a(F1491.0
I52
tp495
a(F1586.0
I43
tp496
a(F1617.0
I65
tp497
a(F1719.0
I50
tp498
a(F1813.0
I48
tp499
a(F1858.0
I35
tp500
a(F1918.0
I23
tp501
a(F1966.0
I63
tp502
a(F2054.0
I107
tp503
a(F2089.0
I26
tp504
a(F2334.0
I33
tp505
a(F2411.0
I27
tp506
a(F2686.0
I53
tp507
a(F2919.0
I64
tp508
a(F3021.0
I58
tp509
a(F3123.0
I95
tp510
a(F3198.0
I82
tp511
a(F3215.0
I69
tp512
a(F3263.0
I98
tp513
a(F3324.0
I66
tp514
a(F3369.0
I102
tp515
a(F3400.0
I73
tp516
a(F3452.0
I29
tp517
a(F3533.0
I126
tp518
a(F3559.0
I48
tp519
a(F3696.0
I58
tp520
a(F3725.0
I55
tp521
a(F3758.0
I58
tp522
a(F4161.0
I83
tp523
a(F4215.0
I59
tp524
a(F4242.0
I41
tp525
a(F4290.0
I55
tp526
a(F4328.0
I38
tp527
a(F4964.0
I21
tp528
a(F5192.0
I49
tp529
a(F5328.0
I47
tp530
a(F5549.0
I63
tp531
a(F6224.0
I17
tp532
aa(lp533
(F808.0
I97
tp534
a(F1263.0
I89
tp535
a(F1283.0
I20
tp536
a(F1472.0
I122
tp537
a(F1482.0
I23
tp538
a(F1667.0
I35
tp539
a(F1678.0
I57
tp540
a(F1746.0
I33
tp541
a(F2023.0
I89
tp542
a(F2054.0
I60
tp543
a(F2317.0
I20
tp544
a(F2321.0
I78
tp545
a(F2523.0
I81
tp546
a(F2535.0
I18
tp547
a(F3096.0
I58
tp548
a(F3099.0
I96
tp549
a(F3122.0
I35
tp550
a(F3264.0
I110
tp551
a(F3341.0
I109
tp552
a(F3446.0
I127
tp553
a(F3485.0
I65
tp554
a(F3623.0
I76
tp555
a(F3715.0
I118
tp556
a(F3725.0
I51
tp557
a(F3735.0
I34
tp558
a(F3750.0
I36
tp559
a(F3838.0
I107
tp560
a(F3871.0
I106
tp561
a(F3896.0
I124
tp562
a(F3921.0
I62
tp563
a(F3940.0
I73
tp564
a(F3959.0
I115
tp565
a(F4012.0
I140
tp566
a(F4084.0
I115
tp567
a(F4159.0
I107
tp568
a(F4174.0
I43
tp569
a(F4378.0
I140
tp570
a(F4415.0
I98
tp571
a(F4675.0
I122
tp572
a(F5429.0
I123
tp573
a(F6045.0
I119
tp574
a(F6085.0
I112
tp575
a(F6156.0
I123
tp576
a(F6193.0
I84
tp577
aa(lp578
(F99.0
I67
tp579
a(F102.0
I47
tp580
a(F110.0
I109
tp581
a(F113.0
I81
tp582
a(F117.0
I54
tp583
a(F120.0
I83
tp584
a(F1078.0
I79
tp585
a(F1081.0
I112
tp586
a(F1083.0
I97
tp587
a(F1088.0
I61
tp588
a(F1103.0
I117
tp589
a(F1109.0
I81
tp590
a(F1115.0
I104
tp591
a(F1154.0
I109
tp592
a(F1204.0
I61
tp593
a(F1241.0
I81
tp594
a(F2254.0
I90
tp595
a(F2258.0
I126
tp596
a(F2260.0
I83
tp597
a(F2263.0
I88
tp598
a(F2267.0
I134
tp599
a(F2269.0
I87
tp600
a(F2272.0
I140
tp601
a(F2275.0
I59
tp602
a(F2280.0
I79
tp603
a(F2283.0
I116
tp604
a(F2736.0
I63
tp605
a(F2740.0
I62
tp606
a(F2743.0
I63
tp607
a(F2745.0
I54
tp608
a(F2748.0
I77
tp609
a(F2750.0
I83
tp610
a(F2753.0
I140
tp611
a(F2756.0
I81
tp612
a(F3240.0
I72
tp613
a(F3243.0
I90
tp614
a(F3245.0
I97
tp615
a(F3247.0
I59
tp616
a(F3252.0
I73
tp617
a(F3254.0
I103
tp618
a(F3257.0
I97
tp619
a(F3261.0
I111
tp620
a(F3286.0
I58
tp621
aa(lp622
(F48.0
I140
tp623
a(F61.0
I140
tp624
a(F124.0
I93
tp625
a(F235.0
I112
tp626
a(F246.0
I140
tp627
a(F760.0
I75
tp628
a(F786.0
I57
tp629
a(F794.0
I113
tp630
a(F843.0
I140
tp631
a(F856.0
I99
tp632
a(F949.0
I86
tp633
a(F1041.0
I115
tp634
a(F1573.0
I78
tp635
a(F2012.0
I140
tp636
a(F2025.0
I110
tp637
a(F2088.0
I126
tp638
a(F2237.0
I86
tp639
a(F2244.0
I92
tp640
a(F2270.0
I63
tp641
a(F2282.0
I54
tp642
a(F2558.0
I36
tp643
a(F2655.0
I140
tp644
a(F2753.0
I137
tp645
a(F2805.0
I75
tp646
a(F2894.0
I29
tp647
a(F2990.0
I140
tp648
a(F3006.0
I99
tp649
a(F3466.0
I63
tp650
a(F3510.0
I75
tp651
a(F3734.0
I140
tp652
a(F4486.0
I84
tp653
a(F4662.0
I63
tp654
a(F4767.0
I71
tp655
a(F4824.0
I77
tp656
a(F4935.0
I140
tp657
a(F5169.0
I34
tp658
a(F5315.0
I62
tp659
a(F5331.0
I50
tp660
a(F5711.0
I140
tp661
a(F5741.0
I65
tp662
a(F5988.0
I107
tp663
a(F6235.0
I97
tp664
aa(lp665
(F1767.0
I103
tp666
a(F1993.0
I38
tp667
a(F2058.0
I64
tp668
a(F2070.0
I20
tp669
a(F2247.0
I99
tp670
a(F2397.0
I116
tp671
a(F2469.0
I84
tp672
a(F2499.0
I140
tp673
a(F2568.0
I123
tp674
a(F2594.0
I75
tp675
a(F2612.0
I84
tp676
a(F2760.0
I119
tp677
a(F2946.0
I65
tp678
a(F2997.0
I115
tp679
a(F3004.0
I50
tp680
a(F3009.0
I140
tp681
a(F3391.0
I89
tp682
a(F3459.0
I140
tp683
a(F3760.0
I140
tp684
a(F4056.0
I99
tp685
a(F4062.0
I40
tp686
a(F4078.0
I60
tp687
a(F4273.0
I92
tp688
a(F4327.0
I136
tp689
a(F4328.0
I136
tp690
a(F4328.0
I136
tp691
a(F4329.0
I136
tp692
a(F4329.0
I136
tp693
a(F4439.0
I67
tp694
a(F4521.0
I91
tp695
a(F4868.0
I45
tp696
a(F4975.0
I77
tp697
a(F4993.0
I74
tp698
a(F5057.0
I112
tp699
a(F5263.0
I56
tp700
a(F5393.0
I45
tp701
a(F5421.0
I50
tp702
a(F5524.0
I26
tp703
a(F5542.0
I119
tp704
a(F5561.0
I41
tp705
a(F5601.0
I47
tp706
a(F5910.0
I24
tp707
aa(lp708
(F39.0
I65
tp709
a(F216.0
I61
tp710
a(F266.0
I94
tp711
a(F292.0
I79
tp712
a(F326.0
I43
tp713
a(F390.0
I86
tp714
a(F416.0
I63
tp715
a(F446.0
I99
tp716
a(F1704.0
I72
tp717
a(F1752.0
I108
tp718
a(F1831.0
I65
tp719
a(F1899.0
I70
tp720
a(F1964.0
I116
tp721
a(F2014.0
I69
tp722
a(F2091.0
I132
tp723
a(F2136.0
I41
tp724
a(F2173.0
I61
tp725
a(F2220.0
I98
tp726
a(F2348.0
I45
tp727
a(F2367.0
I44
tp728
a(F2453.0
I45
tp729
a(F2469.0
I36
tp730
a(F2487.0
I59
tp731
a(F2521.0
I65
tp732
a(F2654.0
I140
tp733
a(F2678.0
I63
tp734
a(F2820.0
I54
tp735
a(F2848.0
I72
tp736
a(F2872.0
I79
tp737
a(F2933.0
I41
tp738
a(F2951.0
I55
tp739
a(F3034.0
I85
tp740
a(F3100.0
I79
tp741
a(F3118.0
I72
tp742
a(F3157.0
I93
tp743
a(F3639.0
I69
tp744
a(F3697.0
I140
tp745
a(F5487.0
I55
tp746
a(F5754.0
I135
tp747
a(F6108.0
I72
tp748
a(F6164.0
I81
tp749
aa(lp750
(F819.0
I77
tp751
a(F830.0
I32
tp752
a(F850.0
I134
tp753
a(F962.0
I71
tp754
a(F1121.0
I67
tp755
a(F1452.0
I101
tp756
a(F2104.0
I9
tp757
a(F2229.0
I56
tp758
a(F2245.0
I77
tp759
a(F2290.0
I140
tp760
a(F2311.0
I122
tp761
a(F2374.0
I60
tp762
a(F2544.0
I105
tp763
a(F2662.0
I73
tp764
a(F2670.0
I80
tp765
a(F2946.0
I86
tp766
a(F2973.0
I124
tp767
a(F3080.0
I57
tp768
a(F3382.0
I83
tp769
a(F3450.0
I88
tp770
a(F3503.0
I109
tp771
a(F3629.0
I53
tp772
a(F4158.0
I22
tp773
a(F4212.0
I59
tp774
a(F4221.0
I96
tp775
a(F4269.0
I72
tp776
a(F4329.0
I78
tp777
a(F4378.0
I81
tp778
a(F4497.0
I76
tp779
a(F4568.0
I120
tp780
a(F4620.0
I52
tp781
a(F4758.0
I76
tp782
a(F4770.0
I72
tp783
a(F4921.0
I47
tp784
a(F5127.0
I107
tp785
a(F5144.0
I67
tp786
a(F5171.0
I72
tp787
a(F5213.0
I75
tp788
a(F5248.0
I140
tp789
a(F5626.0
I50
tp790
a(F5970.0
I76
tp791
aa(lp792
(F3358.0
I97
tp793
a(F3363.0
I20
tp794
a(F3402.0
I41
tp795
a(F3405.0
I20
tp796
a(F3462.0
I73
tp797
a(F3466.0
I20
tp798
a(F3494.0
I41
tp799
a(F3497.0
I20
tp800
a(F3520.0
I48
tp801
a(F3523.0
I20
tp802
a(F3535.0
I40
tp803
a(F3542.0
I20
tp804
a(F3566.0
I120
tp805
a(F3570.0
I20
tp806
a(F3585.0
I40
tp807
a(F3589.0
I20
tp808
a(F3615.0
I41
tp809
a(F3619.0
I20
tp810
a(F3680.0
I127
tp811
a(F3682.0
I20
tp812
a(F3713.0
I40
tp813
a(F3716.0
I20
tp814
a(F3729.0
I40
tp815
a(F3732.0
I20
tp816
a(F3744.0
I68
tp817
a(F3747.0
I20
tp818
a(F3789.0
I63
tp819
a(F3798.0
I20
tp820
a(F3834.0
I90
tp821
a(F3841.0
I20
tp822
a(F3970.0
I46
tp823
a(F4062.0
I107
tp824
a(F4063.0
I20
tp825
a(F4072.0
I82
tp826
a(F4077.0
I20
tp827
a(F4133.0
I87
tp828
a(F4136.0
I20
tp829
a(F4156.0
I140
tp830
a(F4163.0
I20
tp831
a(F4189.0
I41
tp832
a(F4192.0
I20
tp833
aa(lp834
(F144.0
I51
tp835
a(F521.0
I85
tp836
a(F525.0
I102
tp837
a(F537.0
I28
tp838
a(F598.0
I36
tp839
a(F686.0
I30
tp840
a(F708.0
I53
tp841
a(F749.0
I15
tp842
a(F763.0
I85
tp843
a(F793.0
I98
tp844
a(F799.0
I81
tp845
a(F806.0
I79
tp846
a(F828.0
I44
tp847
a(F860.0
I52
tp848
a(F908.0
I77
tp849
a(F934.0
I57
tp850
a(F1041.0
I28
tp851
a(F1060.0
I134
tp852
a(F1119.0
I140
tp853
a(F1154.0
I49
tp854
a(F1193.0
I30
tp855
a(F1448.0
I140
tp856
a(F1512.0
I73
tp857
a(F1568.0
I45
tp858
a(F1590.0
I45
tp859
a(F1666.0
I42
tp860
a(F1692.0
I39
tp861
a(F1715.0
I72
tp862
a(F1727.0
I26
tp863
a(F1749.0
I47
tp864
a(F1754.0
I134
tp865
a(F1767.0
I53
tp866
a(F1846.0
I91
tp867
a(F1946.0
I44
tp868
a(F1981.0
I80
tp869
a(F1993.0
I28
tp870
a(F2100.0
I48
tp871
a(F2254.0
I132
tp872
a(F2265.0
I34
tp873
a(F2282.0
I32
tp874
a(F2303.0
I29
tp875
aa(lp876
(F1171.0
I32
tp877
a(F1425.0
I47
tp878
a(F1438.0
I89
tp879
a(F1487.0
I112
tp880
a(F1498.0
I140
tp881
a(F1585.0
I123
tp882
a(F1614.0
I134
tp883
a(F1691.0
I140
tp884
a(F1891.0
I120
tp885
a(F1929.0
I39
tp886
a(F2508.0
I140
tp887
a(F2532.0
I96
tp888
a(F2695.0
I67
tp889
a(F2703.0
I59
tp890
a(F2708.0
I69
tp891
a(F2718.0
I136
tp892
a(F2752.0
I140
tp893
a(F2772.0
I140
tp894
a(F2806.0
I66
tp895
a(F2918.0
I55
tp896
a(F2939.0
I140
tp897
a(F3071.0
I134
tp898
a(F3139.0
I104
tp899
a(F3163.0
I106
tp900
a(F3172.0
I129
tp901
a(F4020.0
I37
tp902
a(F4144.0
I40
tp903
a(F4976.0
I35
tp904
a(F5114.0
I107
tp905
a(F5237.0
I113
tp906
a(F5247.0
I46
tp907
a(F5328.0
I57
tp908
a(F5337.0
I133
tp909
a(F5352.0
I132
tp910
a(F5402.0
I140
tp911
a(F5450.0
I70
tp912
a(F5475.0
I111
tp913
a(F5490.0
I117
tp914
a(F5735.0
I32
tp915
aa(lp916
(F38.0
I52
tp917
a(F51.0
I99
tp918
a(F79.0
I67
tp919
a(F107.0
I61
tp920
a(F114.0
I84
tp921
a(F161.0
I54
tp922
a(F221.0
I63
tp923
a(F333.0
I118
tp924
a(F391.0
I140
tp925
a(F1448.0
I31
tp926
a(F1654.0
I64
tp927
a(F1694.0
I35
tp928
a(F1731.0
I140
tp929
a(F1782.0
I113
tp930
a(F1905.0
I69
tp931
a(F1945.0
I48
tp932
a(F2043.0
I58
tp933
a(F2112.0
I106
tp934
a(F2382.0
I66
tp935
a(F2579.0
I69
tp936
a(F2789.0
I140
tp937
a(F2813.0
I140
tp938
a(F2882.0
I140
tp939
a(F3279.0
I49
tp940
a(F3286.0
I140
tp941
a(F3451.0
I25
tp942
a(F3567.0
I30
tp943
a(F3650.0
I140
tp944
a(F3848.0
I127
tp945
a(F3859.0
I63
tp946
a(F5267.0
I43
tp947
a(F5271.0
I115
tp948
a(F5305.0
I94
tp949
a(F5352.0
I96
tp950
a(F5578.0
I46
tp951
a(F5722.0
I140
tp952
a(F5740.0
I55
tp953
a(F5766.0
I71
tp954
a(F5846.0
I26
tp955
aa(lp956
(F473.0
I98
tp957
a(F482.0
I87
tp958
a(F646.0
I135
tp959
a(F2647.0
I55
tp960
a(F2686.0
I50
tp961
a(F2773.0
I104
tp962
a(F2785.0
I60
tp963
a(F2866.0
I61
tp964
a(F2876.0
I94
tp965
a(F2897.0
I140
tp966
a(F2922.0
I36
tp967
a(F2985.0
I69
tp968
a(F3021.0
I84
tp969
a(F3028.0
I64
tp970
a(F3049.0
I130
tp971
a(F3076.0
I128
tp972
a(F3105.0
I61
tp973
a(F3149.0
I140
tp974
a(F3230.0
I57
tp975
a(F3289.0
I78
tp976
a(F3300.0
I52
tp977
a(F3331.0
I46
tp978
a(F3437.0
I49
tp979
a(F3447.0
I89
tp980
a(F3449.0
I95
tp981
a(F3534.0
I70
tp982
a(F3598.0
I102
tp983
a(F3674.0
I62
tp984
a(F3681.0
I130
tp985
a(F3736.0
I85
tp986
a(F3780.0
I82
tp987
a(F3797.0
I112
tp988
a(F3959.0
I58
tp989
a(F4112.0
I74
tp990
a(F4202.0
I58
tp991
a(F4971.0
I116
tp992
a(F5069.0
I92
tp993
a(F5101.0
I78
tp994
aa(lp995
(F5.0
I140
tp996
a(F660.0
I61
tp997
a(F726.0
I64
tp998
a(F840.0
I140
tp999
a(F882.0
I81
tp1000
a(F921.0
I55
tp1001
a(F1385.0
I112
tp1002
a(F1392.0
I64
tp1003
a(F1423.0
I82
tp1004
a(F1430.0
I69
tp1005
a(F1433.0
I68
tp1006
a(F1438.0
I114
tp1007
a(F1446.0
I122
tp1008
a(F1461.0
I85
tp1009
a(F1495.0
I87
tp1010
a(F2178.0
I61
tp1011
a(F2567.0
I84
tp1012
a(F2605.0
I49
tp1013
a(F3793.0
I44
tp1014
a(F3798.0
I79
tp1015
a(F3824.0
I75
tp1016
a(F4797.0
I77
tp1017
a(F4811.0
I82
tp1018
a(F4829.0
I84
tp1019
a(F4845.0
I139
tp1020
a(F4908.0
I32
tp1021
a(F4929.0
I140
tp1022
a(F5028.0
I140
tp1023
a(F5554.0
I62
tp1024
a(F5726.0
I90
tp1025
a(F5799.0
I134
tp1026
a(F5808.0
I87
tp1027
a(F6013.0
I60
tp1028
a(F6040.0
I59
tp1029
a(F6047.0
I61
tp1030
a(F6050.0
I100
tp1031
a(F6069.0
I85
tp1032
a(F6222.0
I52
tp1033
aa(lp1034
(F4330.0
I35
tp1035
a(F4359.0
I93
tp1036
a(F4421.0
I100
tp1037
a(F4477.0
I54
tp1038
a(F4526.0
I33
tp1039
a(F4589.0
I24
tp1040
a(F4637.0
I15
tp1041
a(F4666.0
I36
tp1042
a(F4706.0
I16
tp1043
a(F4717.0
I21
tp1044
a(F4932.0
I80
tp1045
a(F4993.0
I37
tp1046
a(F5002.0
I20
tp1047
a(F5010.0
I6
tp1048
a(F5043.0
I117
tp1049
a(F5052.0
I131
tp1050
a(F5078.0
I65
tp1051
a(F5086.0
I80
tp1052
a(F5115.0
I54
tp1053
a(F5180.0
I76
tp1054
a(F5198.0
I47
tp1055
a(F5210.0
I114
tp1056
a(F5256.0
I20
tp1057
a(F5301.0
I37
tp1058
a(F5362.0
I43
tp1059
a(F5375.0
I59
tp1060
a(F5435.0
I45
tp1061
a(F5451.0
I56
tp1062
a(F5498.0
I15
tp1063
a(F5565.0
I77
tp1064
a(F5614.0
I32
tp1065
a(F6013.0
I32
tp1066
a(F6017.0
I95
tp1067
a(F6022.0
I41
tp1068
a(F6050.0
I24
tp1069
a(F6080.0
I48
tp1070
a(F6171.0
I123
tp1071
a(F6219.0
I23
tp1072
aa(lp1073
(F10.0
I119
tp1074
a(F69.0
I94
tp1075
a(F231.0
I48
tp1076
a(F332.0
I140
tp1077
a(F2535.0
I87
tp1078
a(F2568.0
I63
tp1079
a(F2674.0
I140
tp1080
a(F2695.0
I140
tp1081
a(F2715.0
I73
tp1082
a(F2819.0
I136
tp1083
a(F2943.0
I140
tp1084
a(F2974.0
I103
tp1085
a(F3132.0
I64
tp1086
a(F3179.0
I80
tp1087
a(F3191.0
I140
tp1088
a(F3203.0
I24
tp1089
a(F3233.0
I140
tp1090
a(F3311.0
I30
tp1091
a(F3341.0
I73
tp1092
a(F3351.0
I43
tp1093
a(F3443.0
I49
tp1094
a(F3465.0
I140
tp1095
a(F3479.0
I78
tp1096
a(F3503.0
I79
tp1097
a(F3506.0
I44
tp1098
a(F3589.0
I26
tp1099
a(F3681.0
I39
tp1100
a(F5528.0
I90
tp1101
a(F5551.0
I87
tp1102
a(F5556.0
I68
tp1103
a(F5579.0
I132
tp1104
a(F5642.0
I93
tp1105
a(F5709.0
I105
tp1106
a(F5724.0
I85
tp1107
a(F5857.0
I38
tp1108
a(F5881.0
I53
tp1109
a(F5944.0
I25
tp1110
a(F6049.0
I93
tp1111
aa(lp1112
(F186.0
I87
tp1113
a(F760.0
I92
tp1114
a(F821.0
I44
tp1115
a(F821.0
I88
tp1116
a(F822.0
I91
tp1117
a(F822.0
I105
tp1118
a(F822.0
I67
tp1119
a(F907.0
I69
tp1120
a(F966.0
I87
tp1121
a(F998.0
I65
tp1122
a(F1177.0
I94
tp1123
a(F1747.0
I80
tp1124
a(F2166.0
I92
tp1125
a(F2167.0
I79
tp1126
a(F2167.0
I98
tp1127
a(F2543.0
I126
tp1128
a(F2593.0
I101
tp1129
a(F2593.0
I102
tp1130
a(F2769.0
I87
tp1131
a(F2949.0
I83
tp1132
a(F3159.0
I71
tp1133
a(F3159.0
I77
tp1134
a(F3160.0
I99
tp1135
a(F3160.0
I101
tp1136
a(F3161.0
I102
tp1137
a(F3668.0
I109
tp1138
a(F4146.0
I72
tp1139
a(F4147.0
I84
tp1140
a(F4147.0
I83
tp1141
a(F4148.0
I97
tp1142
a(F4571.0
I97
tp1143
a(F4572.0
I94
tp1144
a(F4689.0
I70
tp1145
a(F4927.0
I94
tp1146
a(F5001.0
I79
tp1147
a(F5528.0
I123
tp1148
a(F6096.0
I100
tp1149
aa(lp1150
(F101.0
I82
tp1151
a(F420.0
I12
tp1152
a(F640.0
I128
tp1153
a(F930.0
I36
tp1154
a(F994.0
I72
tp1155
a(F1200.0
I48
tp1156
a(F1553.0
I108
tp1157
a(F1862.0
I108
tp1158
a(F2000.0
I73
tp1159
a(F2082.0
I129
tp1160
a(F2098.0
I76
tp1161
a(F2116.0
I57
tp1162
a(F2201.0
I118
tp1163
a(F2240.0
I54
tp1164
a(F2265.0
I30
tp1165
a(F2330.0
I125
tp1166
a(F2378.0
I32
tp1167
a(F2587.0
I61
tp1168
a(F2754.0
I55
tp1169
a(F2814.0
I121
tp1170
a(F2841.0
I113
tp1171
a(F3624.0
I47
tp1172
a(F3734.0
I13
tp1173
a(F4075.0
I28
tp1174
a(F5143.0
I30
tp1175
a(F5265.0
I65
tp1176
a(F5347.0
I113
tp1177
a(F5374.0
I24
tp1178
a(F5478.0
I134
tp1179
a(F5631.0
I31
tp1180
a(F5673.0
I40
tp1181
a(F5767.0
I71
tp1182
a(F5846.0
I26
tp1183
a(F5932.0
I39
tp1184
a(F6022.0
I35
tp1185
a(F6203.0
I95
tp1186
aa(lp1187
(F2784.0
I30
tp1188
a(F2816.0
I63
tp1189
a(F2851.0
I36
tp1190
a(F2897.0
I16
tp1191
a(F2996.0
I91
tp1192
a(F3049.0
I31
tp1193
a(F3272.0
I76
tp1194
a(F3515.0
I14
tp1195
a(F4042.0
I101
tp1196
a(F4101.0
I6
tp1197
a(F4802.0
I44
tp1198
a(F4851.0
I88
tp1199
a(F4874.0
I116
tp1200
a(F4913.0
I68
tp1201
a(F4955.0
I66
tp1202
a(F5039.0
I20
tp1203
a(F5197.0
I17
tp1204
a(F5311.0
I16
tp1205
a(F5336.0
I26
tp1206
a(F5367.0
I46
tp1207
a(F5416.0
I24
tp1208
a(F5442.0
I14
tp1209
a(F5457.0
I32
tp1210
a(F5496.0
I64
tp1211
a(F5609.0
I16
tp1212
a(F5638.0
I25
tp1213
a(F5664.0
I24
tp1214
a(F5685.0
I18
tp1215
a(F5744.0
I31
tp1216
a(F5778.0
I40
tp1217
a(F5814.0
I41
tp1218
a(F5912.0
I46
tp1219
a(F6108.0
I20
tp1220
a(F6118.0
I27
tp1221
a(F6186.0
I27
tp1222
a(F6205.0
I30
tp1223
aa(lp1224
(F522.0
I44
tp1225
a(F554.0
I47
tp1226
a(F648.0
I52
tp1227
a(F690.0
I39
tp1228
a(F790.0
I25
tp1229
a(F848.0
I47
tp1230
a(F982.0
I77
tp1231
a(F1054.0
I42
tp1232
a(F1126.0
I97
tp1233
a(F1154.0
I36
tp1234
a(F1238.0
I33
tp1235
a(F1396.0
I73
tp1236
a(F1469.0
I101
tp1237
a(F1521.0
I37
tp1238
a(F1571.0
I95
tp1239
a(F1593.0
I16
tp1240
a(F1660.0
I80
tp1241
a(F1876.0
I27
tp1242
a(F1949.0
I65
tp1243
a(F1982.0
I55
tp1244
a(F2123.0
I80
tp1245
a(F2327.0
I27
tp1246
a(F2435.0
I82
tp1247
a(F2532.0
I75
tp1248
a(F2561.0
I35
tp1249
a(F2664.0
I24
tp1250
a(F2724.0
I38
tp1251
a(F2805.0
I27
tp1252
a(F3342.0
I59
tp1253
a(F3388.0
I20
tp1254
a(F3565.0
I34
tp1255
a(F4438.0
I33
tp1256
a(F5479.0
I55
tp1257
a(F5803.0
I39
tp1258
a(F6002.0
I25
tp1259
aa(lp1260
(F746.0
I8
tp1261
a(F776.0
I10
tp1262
a(F1039.0
I140
tp1263
a(F1199.0
I29
tp1264
a(F1243.0
I38
tp1265
a(F1273.0
I26
tp1266
a(F1323.0
I76
tp1267
a(F1445.0
I71
tp1268
a(F1462.0
I67
tp1269
a(F1471.0
I134
tp1270
a(F1614.0
I41
tp1271
a(F2784.0
I100
tp1272
a(F2803.0
I140
tp1273
a(F2825.0
I79
tp1274
a(F2933.0
I66
tp1275
a(F2952.0
I42
tp1276
a(F3060.0
I58
tp1277
a(F3074.0
I60
tp1278
a(F3176.0
I96
tp1279
a(F3357.0
I74
tp1280
a(F3385.0
I43
tp1281
a(F3560.0
I139
tp1282
a(F3671.0
I105
tp1283
a(F4477.0
I74
tp1284
a(F4594.0
I53
tp1285
a(F4633.0
I63
tp1286
a(F4657.0
I56
tp1287
a(F4913.0
I25
tp1288
a(F5115.0
I112
tp1289
a(F5196.0
I56
tp1290
a(F5211.0
I58
tp1291
a(F6004.0
I19
tp1292
a(F6053.0
I18
tp1293
a(F6226.0
I74
tp1294
a(F6235.0
I63
tp1295
aa(lp1296
(F2258.0
I6
tp1297
a(F2265.0
I27
tp1298
a(F2469.0
I140
tp1299
a(F2546.0
I140
tp1300
a(F2669.0
I121
tp1301
a(F2729.0
I15
tp1302
a(F2801.0
I41
tp1303
a(F2829.0
I33
tp1304
a(F2844.0
I21
tp1305
a(F3043.0
I112
tp1306
a(F3050.0
I83
tp1307
a(F3137.0
I36
tp1308
a(F3155.0
I4
tp1309
a(F3307.0
I25
tp1310
a(F3312.0
I5
tp1311
a(F3356.0
I61
tp1312
a(F3405.0
I132
tp1313
a(F3460.0
I140
tp1314
a(F3466.0
I140
tp1315
a(F3506.0
I61
tp1316
a(F3532.0
I35
tp1317
a(F3562.0
I11
tp1318
a(F3593.0
I17
tp1319
a(F3716.0
I21
tp1320
a(F3717.0
I36
tp1321
a(F3736.0
I13
tp1322
a(F3752.0
I76
tp1323
a(F3769.0
I22
tp1324
a(F3790.0
I131
tp1325
a(F3852.0
I104
tp1326
a(F3859.0
I116
tp1327
a(F4039.0
I69
tp1328
a(F4066.0
I2
tp1329
a(F4131.0
I32
tp1330
a(F4209.0
I61
tp1331
aa(lp1332
(F93.0
I62
tp1333
a(F594.0
I66
tp1334
a(F1914.0
I66
tp1335
a(F2312.0
I60
tp1336
a(F2461.0
I134
tp1337
a(F2505.0
I75
tp1338
a(F2569.0
I135
tp1339
a(F2638.0
I140
tp1340
a(F2697.0
I130
tp1341
a(F2810.0
I113
tp1342
a(F2951.0
I53
tp1343
a(F3657.0
I122
tp1344
a(F3717.0
I123
tp1345
a(F3800.0
I121
tp1346
a(F3863.0
I108
tp1347
a(F3944.0
I116
tp1348
a(F4082.0
I91
tp1349
a(F4133.0
I133
tp1350
a(F4593.0
I120
tp1351
a(F4646.0
I127
tp1352
a(F4695.0
I136
tp1353
a(F4810.0
I121
tp1354
a(F4960.0
I115
tp1355
a(F5020.0
I121
tp1356
a(F5198.0
I119
tp1357
a(F5320.0
I112
tp1358
a(F5449.0
I119
tp1359
a(F5474.0
I76
tp1360
a(F5589.0
I139
tp1361
a(F5612.0
I136
tp1362
a(F5708.0
I117
tp1363
a(F5795.0
I109
tp1364
a(F5896.0
I106
tp1365
a(F5949.0
I124
tp1366
aa(lp1367
(F466.0
I82
tp1368
a(F568.0
I72
tp1369
a(F574.0
I107
tp1370
a(F584.0
I140
tp1371
a(F605.0
I140
tp1372
a(F621.0
I111
tp1373
a(F641.0
I76
tp1374
a(F1734.0
I99
tp1375
a(F1756.0
I140
tp1376
a(F1766.0
I123
tp1377
a(F1802.0
I66
tp1378
a(F1812.0
I140
tp1379
a(F1821.0
I104
tp1380
a(F1836.0
I129
tp1381
a(F1856.0
I108
tp1382
a(F1904.0
I140
tp1383
a(F1909.0
I96
tp1384
a(F1940.0
I81
tp1385
a(F2038.0
I59
tp1386
a(F3674.0
I120
tp1387
a(F3688.0
I106
tp1388
a(F3695.0
I122
tp1389
a(F3704.0
I68
tp1390
a(F3720.0
I140
tp1391
a(F3731.0
I122
tp1392
a(F3790.0
I116
tp1393
a(F3803.0
I76
tp1394
a(F3816.0
I111
tp1395
a(F3829.0
I140
tp1396
a(F3868.0
I78
tp1397
a(F3878.0
I76
tp1398
a(F3905.0
I86
tp1399
a(F5801.0
I95
tp1400
a(F5820.0
I140
tp1401
aa(lp1402
(F530.0
I72
tp1403
a(F575.0
I16
tp1404
a(F648.0
I96
tp1405
a(F1044.0
I43
tp1406
a(F1320.0
I67
tp1407
a(F1350.0
I33
tp1408
a(F1467.0
I62
tp1409
a(F1853.0
I35
tp1410
a(F2128.0
I110
tp1411
a(F2135.0
I99
tp1412
a(F2190.0
I25
tp1413
a(F2364.0
I74
tp1414
a(F2518.0
I49
tp1415
a(F2534.0
I92
tp1416
a(F2556.0
I42
tp1417
a(F2598.0
I44
tp1418
a(F2719.0
I42
tp1419
a(F3341.0
I72
tp1420
a(F3419.0
I51
tp1421
a(F3461.0
I69
tp1422
a(F3738.0
I66
tp1423
a(F3810.0
I92
tp1424
a(F4049.0
I98
tp1425
a(F4062.0
I68
tp1426
a(F4069.0
I62
tp1427
a(F4272.0
I73
tp1428
a(F4428.0
I58
tp1429
a(F4617.0
I110
tp1430
a(F5351.0
I87
tp1431
a(F5615.0
I41
tp1432
a(F5899.0
I52
tp1433
a(F5937.0
I47
tp1434
a(F5963.0
I57
tp1435
a(F6115.0
I37
tp1436
aa(lp1437
(F10.0
I76
tp1438
a(F340.0
I34
tp1439
a(F1002.0
I64
tp1440
a(F1439.0
I114
tp1441
a(F2674.0
I30
tp1442
a(F2739.0
I44
tp1443
a(F3100.0
I54
tp1444
a(F4149.0
I69
tp1445
a(F4246.0
I135
tp1446
a(F4289.0
I69
tp1447
a(F4432.0
I31
tp1448
a(F4646.0
I62
tp1449
a(F4684.0
I78
tp1450
a(F4688.0
I59
tp1451
a(F4691.0
I80
tp1452
a(F4700.0
I75
tp1453
a(F4714.0
I75
tp1454
a(F4815.0
I108
tp1455
a(F4905.0
I95
tp1456
a(F5052.0
I76
tp1457
a(F5056.0
I77
tp1458
a(F5059.0
I92
tp1459
a(F5227.0
I90
tp1460
a(F5341.0
I131
tp1461
a(F5594.0
I114
tp1462
a(F5599.0
I46
tp1463
a(F5616.0
I58
tp1464
a(F5772.0
I101
tp1465
a(F5825.0
I100
tp1466
a(F6125.0
I140
tp1467
a(F6128.0
I140
tp1468
a(F6132.0
I101
tp1469
a(F6176.0
I100
tp1470
aa(lp1471
(F882.0
I82
tp1472
a(F892.0
I48
tp1473
a(F957.0
I140
tp1474
a(F1178.0
I92
tp1475
a(F1243.0
I43
tp1476
a(F1365.0
I118
tp1477
a(F1428.0
I80
tp1478
a(F1752.0
I51
tp1479
a(F1771.0
I60
tp1480
a(F1795.0
I27
tp1481
a(F1876.0
I74
tp1482
a(F1926.0
I108
tp1483
a(F1937.0
I23
tp1484
a(F1991.0
I45
tp1485
a(F2038.0
I115
tp1486
a(F2063.0
I136
tp1487
a(F2075.0
I62
tp1488
a(F2082.0
I36
tp1489
a(F2147.0
I23
tp1490
a(F2822.0
I55
tp1491
a(F2834.0
I87
tp1492
a(F2856.0
I130
tp1493
a(F2906.0
I102
tp1494
a(F3073.0
I53
tp1495
a(F3089.0
I23
tp1496
a(F3343.0
I69
tp1497
a(F3352.0
I33
tp1498
a(F3637.0
I106
tp1499
a(F3690.0
I135
tp1500
a(F4147.0
I70
tp1501
a(F4224.0
I69
tp1502
a(F4237.0
I13
tp1503
aa(lp1504
(F1050.0
I57
tp1505
a(F1146.0
I108
tp1506
a(F1388.0
I62
tp1507
a(F1461.0
I50
tp1508
a(F1613.0
I33
tp1509
a(F1702.0
I43
tp1510
a(F1849.0
I73
tp1511
a(F2313.0
I125
tp1512
a(F2409.0
I91
tp1513
a(F2606.0
I75
tp1514
a(F2695.0
I45
tp1515
a(F2734.0
I93
tp1516
a(F2851.0
I67
tp1517
a(F2925.0
I111
tp1518
a(F2930.0
I95
tp1519
a(F3020.0
I69
tp1520
a(F3053.0
I69
tp1521
a(F3146.0
I29
tp1522
a(F3193.0
I48
tp1523
a(F3274.0
I63
tp1524
a(F3351.0
I61
tp1525
a(F3456.0
I90
tp1526
a(F3508.0
I100
tp1527
a(F3586.0
I65
tp1528
a(F3692.0
I74
tp1529
a(F3787.0
I89
tp1530
a(F3881.0
I69
tp1531
a(F4309.0
I51
tp1532
a(F5108.0
I85
tp1533
a(F5378.0
I49
tp1534
a(F6069.0
I69
tp1535
aa(lp1536
(F24.0
I58
tp1537
a(F35.0
I39
tp1538
a(F42.0
I71
tp1539
a(F94.0
I59
tp1540
a(F100.0
I68
tp1541
a(F174.0
I37
tp1542
a(F262.0
I64
tp1543
a(F293.0
I67
tp1544
a(F326.0
I78
tp1545
a(F336.0
I64
tp1546
a(F373.0
I96
tp1547
a(F382.0
I52
tp1548
a(F392.0
I64
tp1549
a(F413.0
I60
tp1550
a(F429.0
I74
tp1551
a(F478.0
I44
tp1552
a(F505.0
I85
tp1553
a(F535.0
I81
tp1554
a(F696.0
I134
tp1555
a(F765.0
I78
tp1556
a(F817.0
I65
tp1557
a(F887.0
I60
tp1558
a(F900.0
I71
tp1559
a(F948.0
I84
tp1560
a(F980.0
I80
tp1561
a(F2741.0
I68
tp1562
a(F2766.0
I76
tp1563
a(F3812.0
I21
tp1564
a(F6113.0
I53
tp1565
aa(lp1566
(F3415.0
I27
tp1567
a(F3439.0
I15
tp1568
a(F3444.0
I73
tp1569
a(F3503.0
I131
tp1570
a(F4325.0
I36
tp1571
a(F4343.0
I69
tp1572
a(F4530.0
I119
tp1573
a(F4591.0
I32
tp1574
a(F4604.0
I55
tp1575
a(F4723.0
I27
tp1576
a(F5086.0
I57
tp1577
a(F5119.0
I19
tp1578
a(F5260.0
I81
tp1579
a(F5418.0
I70
tp1580
a(F5493.0
I42
tp1581
a(F5530.0
I26
tp1582
a(F5569.0
I45
tp1583
a(F5682.0
I18
tp1584
a(F5696.0
I54
tp1585
a(F5709.0
I9
tp1586
a(F5723.0
I73
tp1587
a(F5846.0
I116
tp1588
a(F5852.0
I47
tp1589
a(F6023.0
I20
tp1590
a(F6178.0
I140
tp1591
a(F6195.0
I94
tp1592
a(F6199.0
I62
tp1593
a(F6209.0
I120
tp1594
aa(lp1595
(F605.0
I101
tp1596
a(F623.0
I67
tp1597
a(F683.0
I49
tp1598
a(F690.0
I77
tp1599
a(F718.0
I61
tp1600
a(F728.0
I89
tp1601
a(F748.0
I119
tp1602
a(F790.0
I81
tp1603
a(F810.0
I41
tp1604
a(F849.0
I40
tp1605
a(F1014.0
I77
tp1606
a(F1027.0
I37
tp1607
a(F1048.0
I70
tp1608
a(F1097.0
I140
tp1609
a(F1100.0
I140
tp1610
a(F1202.0
I60
tp1611
a(F1273.0
I87
tp1612
a(F1308.0
I9
tp1613
a(F1319.0
I57
tp1614
a(F1779.0
I22
tp1615
a(F1954.0
I26
tp1616
a(F1992.0
I11
tp1617
a(F2096.0
I69
tp1618
a(F2106.0
I5
tp1619
a(F2156.0
I36
tp1620
a(F2175.0
I30
tp1621
a(F2555.0
I50
tp1622
aa(lp1623
(F657.0
I39
tp1624
a(F730.0
I40
tp1625
a(F781.0
I70
tp1626
a(F837.0
I64
tp1627
a(F1066.0
I94
tp1628
a(F1215.0
I78
tp1629
a(F1698.0
I55
tp1630
a(F2236.0
I23
tp1631
a(F2318.0
I20
tp1632
a(F3292.0
I66
tp1633
a(F3394.0
I138
tp1634
a(F3834.0
I117
tp1635
a(F3909.0
I28
tp1636
a(F3998.0
I45
tp1637
a(F4097.0
I93
tp1638
a(F4558.0
I115
tp1639
a(F4610.0
I98
tp1640
a(F4764.0
I53
tp1641
a(F4833.0
I63
tp1642
a(F4886.0
I45
tp1643
a(F5023.0
I101
tp1644
a(F5155.0
I49
tp1645
a(F5217.0
I86
tp1646
a(F5337.0
I58
tp1647
a(F5460.0
I49
tp1648
a(F5505.0
I54
tp1649
a(F5947.0
I30
tp1650
aa(lp1651
(F5.0
I40
tp1652
a(F132.0
I40
tp1653
a(F220.0
I84
tp1654
a(F290.0
I84
tp1655
a(F356.0
I27
tp1656
a(F396.0
I66
tp1657
a(F412.0
I71
tp1658
a(F461.0
I39
tp1659
a(F500.0
I65
tp1660
a(F1255.0
I11
tp1661
a(F1269.0
I87
tp1662
a(F1289.0
I55
tp1663
a(F1927.0
I93
tp1664
a(F2554.0
I83
tp1665
a(F2592.0
I56
tp1666
a(F2627.0
I48
tp1667
a(F2742.0
I62
tp1668
a(F2796.0
I115
tp1669
a(F2838.0
I33
tp1670
a(F3107.0
I4
tp1671
a(F4378.0
I14
tp1672
a(F4607.0
I75
tp1673
a(F4619.0
I12
tp1674
a(F5141.0
I32
tp1675
a(F5162.0
I125
tp1676
aa(lp1677
(F235.0
I95
tp1678
a(F1675.0
I22
tp1679
a(F1768.0
I51
tp1680
a(F2497.0
I68
tp1681
a(F2507.0
I52
tp1682
a(F2687.0
I140
tp1683
a(F2742.0
I20
tp1684
a(F2804.0
I66
tp1685
a(F2838.0
I111
tp1686
a(F2849.0
I38
tp1687
a(F2865.0
I40
tp1688
a(F2951.0
I102
tp1689
a(F2965.0
I139
tp1690
a(F2970.0
I94
tp1691
a(F3057.0
I92
tp1692
a(F3302.0
I59
tp1693
a(F3503.0
I22
tp1694
a(F3610.0
I45
tp1695
a(F3698.0
I42
tp1696
a(F5417.0
I43
tp1697
a(F5610.0
I140
tp1698
a(F5707.0
I59
tp1699
a(F5797.0
I20
tp1700
a(F6053.0
I20
tp1701
a(F6071.0
I51
tp1702
aa(lp1703
(F15.0
I123
tp1704
a(F199.0
I102
tp1705
a(F319.0
I135
tp1706
a(F429.0
I108
tp1707
a(F524.0
I103
tp1708
a(F581.0
I66
tp1709
a(F669.0
I78
tp1710
a(F779.0
I96
tp1711
a(F869.0
I113
tp1712
a(F999.0
I108
tp1713
a(F1039.0
I84
tp1714
a(F1126.0
I89
tp1715
a(F1191.0
I105
tp1716
a(F1259.0
I52
tp1717
a(F1362.0
I140
tp1718
a(F1547.0
I91
tp1719
a(F1636.0
I97
tp1720
a(F1994.0
I124
tp1721
a(F2098.0
I100
tp1722
a(F2177.0
I84
tp1723
a(F2426.0
I32
tp1724
a(F2571.0
I53
tp1725
a(F2690.0
I103
tp1726
a(F3297.0
I60
tp1727
a(F3345.0
I127
tp1728
aa(lp1729
(F1856.0
I63
tp1730
a(F2021.0
I99
tp1731
a(F2029.0
I60
tp1732
a(F2047.0
I76
tp1733
a(F2084.0
I114
tp1734
a(F2088.0
I45
tp1735
a(F2141.0
I50
tp1736
a(F2422.0
I131
tp1737
a(F2532.0
I70
tp1738
a(F2697.0
I101
tp1739
a(F2735.0
I62
tp1740
a(F3000.0
I52
tp1741
a(F3015.0
I28
tp1742
a(F3047.0
I40
tp1743
a(F3239.0
I42
tp1744
a(F3279.0
I52
tp1745
a(F3460.0
I101
tp1746
a(F3546.0
I18
tp1747
a(F3621.0
I34
tp1748
a(F3702.0
I69
tp1749
a(F3922.0
I23
tp1750
a(F5242.0
I92
tp1751
a(F5531.0
I83
tp1752
a(F6039.0
I36
tp1753
aa(lp1754
(F75.0
I143
tp1755
a(F250.0
I149
tp1756
a(F954.0
I142
tp1757
a(F1658.0
I142
tp1758
a(F1799.0
I142
tp1759
a(F1833.0
I142
tp1760
a(F1862.0
I142
tp1761
a(F1879.0
I142
tp1762
a(F1960.0
I142
tp1763
a(F1979.0
I142
tp1764
a(F2103.0
I142
tp1765
a(F2170.0
I142
tp1766
a(F2359.0
I142
tp1767
a(F2451.0
I142
tp1768
a(F2943.0
I142
tp1769
a(F3205.0
I142
tp1770
a(F3481.0
I142
tp1771
a(F3504.0
I142
tp1772
a(F3525.0
I142
tp1773
a(F3556.0
I142
tp1774
a(F3584.0
I142
tp1775
a(F4551.0
I66
tp1776
a(F5201.0
I133
tp1777
a(F6137.0
I60
tp1778
aa(lp1779
(F1411.0
I78
tp1780
a(F1628.0
I91
tp1781
a(F1715.0
I121
tp1782
a(F1747.0
I140
tp1783
a(F1758.0
I57
tp1784
a(F1774.0
I119
tp1785
a(F1789.0
I140
tp1786
a(F1802.0
I89
tp1787
a(F2056.0
I69
tp1788
a(F2365.0
I92
tp1789
a(F2716.0
I25
tp1790
a(F2834.0
I49
tp1791
a(F3020.0
I42
tp1792
a(F3122.0
I31
tp1793
a(F3233.0
I46
tp1794
a(F3240.0
I56
tp1795
a(F3468.0
I85
tp1796
a(F3501.0
I110
tp1797
a(F3555.0
I92
tp1798
a(F3706.0
I69
tp1799
a(F3742.0
I77
tp1800
a(F4012.0
I18
tp1801
a(F4033.0
I30
tp1802
a(F4076.0
I97
tp1803
aa(lp1804
(F120.0
I43
tp1805
a(F200.0
I118
tp1806
a(F394.0
I35
tp1807
a(F425.0
I34
tp1808
a(F460.0
I92
tp1809
a(F896.0
I140
tp1810
a(F943.0
I129
tp1811
a(F1019.0
I69
tp1812
a(F1108.0
I25
tp1813
a(F1293.0
I100
tp1814
a(F1709.0
I52
tp1815
a(F1733.0
I41
tp1816
a(F1781.0
I71
tp1817
a(F1817.0
I19
tp1818
a(F2124.0
I55
tp1819
a(F2131.0
I67
tp1820
a(F2180.0
I103
tp1821
a(F2268.0
I62
tp1822
a(F2287.0
I24
tp1823
a(F3312.0
I24
tp1824
a(F3835.0
I42
tp1825
a(F4482.0
I78
tp1826
a(F5008.0
I98
tp1827
aa(lp1828
(F710.0
I84
tp1829
a(F977.0
I43
tp1830
a(F1098.0
I22
tp1831
a(F1103.0
I58
tp1832
a(F1120.0
I32
tp1833
a(F1339.0
I25
tp1834
a(F1351.0
I83
tp1835
a(F1512.0
I108
tp1836
a(F1591.0
I140
tp1837
a(F1598.0
I75
tp1838
a(F1783.0
I50
tp1839
a(F1997.0
I74
tp1840
a(F2354.0
I140
tp1841
a(F2376.0
I52
tp1842
a(F2560.0
I88
tp1843
a(F2615.0
I50
tp1844
a(F3142.0
I42
tp1845
a(F3201.0
I99
tp1846
a(F3437.0
I9
tp1847
a(F3964.0
I40
tp1848
a(F4210.0
I5
tp1849
a(F4234.0
I110
tp1850
a(F5966.0
I33
tp1851
aa(lp1852
(F38.0
I122
tp1853
a(F55.0
I128
tp1854
a(F87.0
I126
tp1855
a(F282.0
I134
tp1856
a(F314.0
I133
tp1857
a(F339.0
I124
tp1858
a(F342.0
I97
tp1859
a(F395.0
I102
tp1860
a(F570.0
I137
tp1861
a(F630.0
I80
tp1862
a(F889.0
I138
tp1863
a(F925.0
I129
tp1864
a(F1031.0
I72
tp1865
a(F1099.0
I120
tp1866
a(F1493.0
I64
tp1867
a(F2205.0
I108
tp1868
a(F2892.0
I65
tp1869
a(F2925.0
I104
tp1870
a(F3014.0
I74
tp1871
a(F3055.0
I99
tp1872
a(F4125.0
I110
tp1873
a(F4780.0
I62
tp1874
aa(lp1875
(F1047.0
I18
tp1876
a(F1563.0
I58
tp1877
a(F1806.0
I88
tp1878
a(F2032.0
I40
tp1879
a(F2099.0
I80
tp1880
a(F2522.0
I7
tp1881
a(F2662.0
I133
tp1882
a(F2924.0
I13
tp1883
a(F3075.0
I33
tp1884
a(F3221.0
I51
tp1885
a(F3664.0
I31
tp1886
a(F3675.0
I60
tp1887
a(F3744.0
I22
tp1888
a(F3793.0
I51
tp1889
a(F3838.0
I40
tp1890
a(F3941.0
I30
tp1891
a(F4205.0
I53
tp1892
a(F4454.0
I32
tp1893
a(F4651.0
I85
tp1894
a(F4670.0
I26
tp1895
a(F4991.0
I65
tp1896
a(F5131.0
I45
tp1897
aa(lp1898
(F3393.0
I43
tp1899
a(F3636.0
I68
tp1900
a(F3664.0
I65
tp1901
a(F3688.0
I49
tp1902
a(F3697.0
I60
tp1903
a(F3731.0
I52
tp1904
a(F3791.0
I58
tp1905
a(F3825.0
I74
tp1906
a(F3842.0
I126
tp1907
a(F3851.0
I62
tp1908
a(F4005.0
I61
tp1909
a(F4076.0
I76
tp1910
a(F4179.0
I89
tp1911
a(F4246.0
I108
tp1912
a(F4311.0
I111
tp1913
a(F4429.0
I90
tp1914
a(F4452.0
I94
tp1915
a(F4561.0
I122
tp1916
a(F4604.0
I60
tp1917
a(F4697.0
I82
tp1918
a(F4713.0
I41
tp1919
a(F6217.0
I90
tp1920
aa(lp1921
(F166.0
I68
tp1922
a(F468.0
I93
tp1923
a(F769.0
I78
tp1924
a(F1070.0
I132
tp1925
a(F1322.0
I136
tp1926
a(F1372.0
I85
tp1927
a(F1673.0
I122
tp1928
a(F1975.0
I97
tp1929
a(F2286.0
I101
tp1930
a(F2496.0
I136
tp1931
a(F2588.0
I65
tp1932
a(F2890.0
I102
tp1933
a(F3192.0
I108
tp1934
a(F3493.0
I130
tp1935
a(F3795.0
I98
tp1936
a(F4097.0
I101
tp1937
a(F4399.0
I79
tp1938
a(F4700.0
I117
tp1939
a(F5601.0
I99
tp1940
a(F5903.0
I66
tp1941
a(F6205.0
I137
tp1942
aa(lp1943
(F138.0
I38
tp1944
a(F336.0
I132
tp1945
a(F547.0
I85
tp1946
a(F614.0
I85
tp1947
a(F719.0
I42
tp1948
a(F760.0
I78
tp1949
a(F1450.0
I115
tp1950
a(F1525.0
I43
tp1951
a(F1957.0
I56
tp1952
a(F2040.0
I140
tp1953
a(F2066.0
I89
tp1954
a(F2152.0
I127
tp1955
a(F2166.0
I73
tp1956
a(F2211.0
I71
tp1957
a(F2258.0
I77
tp1958
a(F2494.0
I58
tp1959
a(F2498.0
I40
tp1960
a(F2545.0
I72
tp1961
a(F2616.0
I140
tp1962
a(F2686.0
I138
tp1963
a(F4165.0
I33
tp1964
aa(lp1965
(F305.0
I72
tp1966
a(F305.0
I91
tp1967
a(F307.0
I80
tp1968
a(F308.0
I74
tp1969
a(F308.0
I86
tp1970
a(F310.0
I94
tp1971
a(F2256.0
I53
tp1972
a(F4117.0
I76
tp1973
a(F4118.0
I83
tp1974
a(F4118.0
I83
tp1975
a(F4119.0
I81
tp1976
a(F4119.0
I53
tp1977
a(F4119.0
I92
tp1978
a(F4120.0
I77
tp1979
a(F4121.0
I78
tp1980
a(F5961.0
I75
tp1981
a(F5962.0
I58
tp1982
a(F5962.0
I61
tp1983
a(F5962.0
I47
tp1984
a(F5963.0
I64
tp1985
a(F5964.0
I62
tp1986
aa(lp1987
(F505.0
I95
tp1988
a(F753.0
I136
tp1989
a(F1012.0
I104
tp1990
a(F1294.0
I138
tp1991
a(F1510.0
I127
tp1992
a(F1666.0
I108
tp1993
a(F1918.0
I140
tp1994
a(F2100.0
I137
tp1995
a(F3380.0
I50
tp1996
a(F3544.0
I74
tp1997
a(F3688.0
I70
tp1998
a(F3778.0
I59
tp1999
a(F3922.0
I44
tp2000
a(F4063.0
I35
tp2001
a(F4300.0
I37
tp2002
a(F4523.0
I40
tp2003
a(F4634.0
I58
tp2004
a(F5266.0
I31
tp2005
a(F5402.0
I64
tp2006
a(F5464.0
I47
tp2007
aa(lp2008
(F42.0
I111
tp2009
a(F142.0
I70
tp2010
a(F158.0
I140
tp2011
a(F198.0
I133
tp2012
a(F238.0
I140
tp2013
a(F332.0
I24
tp2014
a(F498.0
I138
tp2015
a(F564.0
I140
tp2016
a(F603.0
I139
tp2017
a(F698.0
I139
tp2018
a(F925.0
I140
tp2019
a(F1172.0
I86
tp2020
a(F1281.0
I140
tp2021
a(F1337.0
I138
tp2022
a(F1373.0
I139
tp2023
a(F1554.0
I64
tp2024
a(F1902.0
I39
tp2025
a(F2142.0
I23
tp2026
a(F5607.0
I132
tp2027
a(F5667.0
I110
tp2028
aa(lp2029
(F2825.0
I28
tp2030
a(F3055.0
I16
tp2031
a(F3208.0
I31
tp2032
a(F3260.0
I127
tp2033
a(F3425.0
I17
tp2034
a(F3492.0
I50
tp2035
a(F3606.0
I22
tp2036
a(F4079.0
I86
tp2037
a(F4110.0
I30
tp2038
a(F4309.0
I63
tp2039
a(F4531.0
I88
tp2040
a(F4605.0
I52
tp2041
a(F4720.0
I104
tp2042
a(F4790.0
I37
tp2043
a(F5301.0
I13
tp2044
a(F5429.0
I19
tp2045
a(F5573.0
I48
tp2046
a(F5656.0
I95
tp2047
a(F5702.0
I89
tp2048
a(F6156.0
I65
tp2049
aa(lp2050
(F2856.0
I72
tp2051
a(F3105.0
I137
tp2052
a(F3268.0
I54
tp2053
a(F3375.0
I106
tp2054
a(F3497.0
I140
tp2055
a(F3628.0
I136
tp2056
a(F3666.0
I140
tp2057
a(F3779.0
I138
tp2058
a(F3801.0
I77
tp2059
a(F3974.0
I85
tp2060
a(F4046.0
I68
tp2061
a(F4111.0
I88
tp2062
a(F4142.0
I104
tp2063
a(F4289.0
I58
tp2064
a(F4856.0
I106
tp2065
a(F4926.0
I64
tp2066
a(F5023.0
I80
tp2067
a(F5505.0
I116
tp2068
a(F6025.0
I116
tp2069
a(F6050.0
I113
tp2070
aa(lp2071
(F79.0
I84
tp2072
a(F106.0
I15
tp2073
a(F187.0
I23
tp2074
a(F419.0
I29
tp2075
a(F511.0
I18
tp2076
a(F718.0
I37
tp2077
a(F746.0
I52
tp2078
a(F790.0
I53
tp2079
a(F815.0
I32
tp2080
a(F925.0
I47
tp2081
a(F943.0
I50
tp2082
a(F1209.0
I54
tp2083
a(F1247.0
I62
tp2084
a(F1434.0
I50
tp2085
a(F1890.0
I27
tp2086
a(F1930.0
I96
tp2087
a(F2148.0
I68
tp2088
a(F2275.0
I140
tp2089
a(F2287.0
I5
tp2090
a(F2399.0
I41
tp2091
aa(lp2092
(F620.0
I39
tp2093
a(F921.0
I88
tp2094
a(F1022.0
I123
tp2095
a(F1038.0
I27
tp2096
a(F1075.0
I77
tp2097
a(F1144.0
I53
tp2098
a(F1228.0
I88
tp2099
a(F1242.0
I59
tp2100
a(F1375.0
I107
tp2101
a(F2755.0
I88
tp2102
a(F3126.0
I26
tp2103
a(F3314.0
I15
tp2104
a(F4021.0
I51
tp2105
a(F4051.0
I73
tp2106
a(F5230.0
I60
tp2107
a(F5344.0
I45
tp2108
a(F5450.0
I56
tp2109
a(F5531.0
I70
tp2110
a(F6184.0
I54
tp2111
a(F6206.0
I47
tp2112
aa(lp2113
(F363.0
I27
tp2114
a(F670.0
I63
tp2115
a(F680.0
I26
tp2116
a(F704.0
I82
tp2117
a(F742.0
I90
tp2118
a(F788.0
I115
tp2119
a(F800.0
I29
tp2120
a(F903.0
I112
tp2121
a(F926.0
I74
tp2122
a(F993.0
I42
tp2123
a(F1037.0
I29
tp2124
a(F1492.0
I18
tp2125
a(F1505.0
I140
tp2126
a(F3543.0
I91
tp2127
a(F3570.0
I93
tp2128
a(F4480.0
I54
tp2129
a(F4512.0
I45
tp2130
a(F4665.0
I27
tp2131
a(F4788.0
I20
tp2132
a(F6122.0
I35
tp2133
aa(lp2134
(F1213.0
I113
tp2135
a(F1253.0
I26
tp2136
a(F2198.0
I31
tp2137
a(F2426.0
I34
tp2138
a(F2492.0
I67
tp2139
a(F2683.0
I35
tp2140
a(F2878.0
I64
tp2141
a(F3033.0
I71
tp2142
a(F3166.0
I98
tp2143
a(F3983.0
I35
tp2144
a(F4434.0
I32
tp2145
a(F5214.0
I62
tp2146
a(F5266.0
I42
tp2147
a(F5470.0
I54
tp2148
a(F5621.0
I114
tp2149
a(F5679.0
I102
tp2150
a(F5729.0
I131
tp2151
a(F5894.0
I108
tp2152
a(F6156.0
I111
tp2153
aa(lp2154
(F1896.0
I38
tp2155
a(F1958.0
I57
tp2156
a(F1985.0
I40
tp2157
a(F2051.0
I63
tp2158
a(F2197.0
I62
tp2159
a(F2263.0
I59
tp2160
a(F2331.0
I123
tp2161
a(F2363.0
I41
tp2162
a(F2492.0
I65
tp2163
a(F2623.0
I75
tp2164
a(F2661.0
I140
tp2165
a(F2967.0
I74
tp2166
a(F3064.0
I97
tp2167
a(F4617.0
I32
tp2168
a(F4681.0
I82
tp2169
a(F4773.0
I140
tp2170
a(F4906.0
I31
tp2171
a(F5181.0
I38
tp2172
a(F5331.0
I46
tp2173
aa(lp2174
(F2288.0
I34
tp2175
a(F2301.0
I17
tp2176
a(F2844.0
I22
tp2177
a(F3254.0
I48
tp2178
a(F3432.0
I35
tp2179
a(F3551.0
I32
tp2180
a(F3847.0
I27
tp2181
a(F3860.0
I55
tp2182
a(F3920.0
I102
tp2183
a(F4193.0
I71
tp2184
a(F4228.0
I126
tp2185
a(F4345.0
I110
tp2186
a(F4370.0
I81
tp2187
a(F4492.0
I71
tp2188
a(F4525.0
I122
tp2189
a(F4799.0
I115
tp2190
a(F5106.0
I31
tp2191
a(F5540.0
I76
tp2192
a(F5574.0
I135
tp2193
aa(lp2194
(F187.0
I36
tp2195
a(F213.0
I81
tp2196
a(F394.0
I52
tp2197
a(F542.0
I20
tp2198
a(F563.0
I16
tp2199
a(F723.0
I100
tp2200
a(F789.0
I107
tp2201
a(F814.0
I106
tp2202
a(F820.0
I75
tp2203
a(F846.0
I53
tp2204
a(F860.0
I64
tp2205
a(F928.0
I98
tp2206
a(F940.0
I77
tp2207
a(F1004.0
I62
tp2208
a(F1018.0
I86
tp2209
a(F1029.0
I66
tp2210
a(F1037.0
I100
tp2211
a(F1058.0
I41
tp2212
a(F1070.0
I104
tp2213
aa(lp2214
(F2933.0
I9
tp2215
a(F3108.0
I75
tp2216
a(F3173.0
I44
tp2217
a(F3193.0
I57
tp2218
a(F3346.0
I34
tp2219
a(F3410.0
I51
tp2220
a(F3452.0
I75
tp2221
a(F3505.0
I84
tp2222
a(F3615.0
I75
tp2223
a(F3694.0
I64
tp2224
a(F3726.0
I50
tp2225
a(F3992.0
I70
tp2226
a(F4159.0
I66
tp2227
a(F4191.0
I35
tp2228
a(F4321.0
I136
tp2229
a(F5174.0
I80
tp2230
a(F5220.0
I59
tp2231
a(F5398.0
I129
tp2232
a(F6224.0
I63
tp2233
aa(lp2234
(F2633.0
I32
tp2235
a(F2664.0
I52
tp2236
a(F2719.0
I110
tp2237
a(F3019.0
I59
tp2238
a(F3056.0
I84
tp2239
a(F3327.0
I56
tp2240
a(F3417.0
I139
tp2241
a(F3505.0
I98
tp2242
a(F3682.0
I68
tp2243
a(F3707.0
I59
tp2244
a(F3764.0
I80
tp2245
a(F3862.0
I100
tp2246
a(F3994.0
I69
tp2247
a(F4174.0
I63
tp2248
a(F4299.0
I140
tp2249
a(F4322.0
I65
tp2250
a(F4543.0
I83
tp2251
a(F4653.0
I35
tp2252
a(F4768.0
I91
tp2253
aa(lp2254
(F1771.0
I64
tp2255
a(F1801.0
I62
tp2256
a(F1837.0
I79
tp2257
a(F1865.0
I56
tp2258
a(F1891.0
I86
tp2259
a(F1922.0
I69
tp2260
a(F1975.0
I82
tp2261
a(F2006.0
I66
tp2262
a(F2037.0
I94
tp2263
a(F2084.0
I90
tp2264
a(F2127.0
I80
tp2265
a(F2161.0
I87
tp2266
a(F2196.0
I87
tp2267
a(F2215.0
I135
tp2268
a(F2234.0
I129
tp2269
a(F2275.0
I89
tp2270
a(F2437.0
I129
tp2271
a(F2441.0
I119
tp2272
a(F4405.0
I51
tp2273
aa(lp2274
(F63.0
I34
tp2275
a(F325.0
I98
tp2276
a(F469.0
I39
tp2277
a(F910.0
I45
tp2278
a(F1264.0
I60
tp2279
a(F1787.0
I60
tp2280
a(F2217.0
I41
tp2281
a(F2321.0
I57
tp2282
a(F2597.0
I62
tp2283
a(F2683.0
I96
tp2284
a(F2853.0
I42
tp2285
a(F3033.0
I73
tp2286
a(F3397.0
I36
tp2287
a(F3431.0
I47
tp2288
a(F3897.0
I66
tp2289
a(F3922.0
I40
tp2290
a(F3934.0
I107
tp2291
a(F4399.0
I79
tp2292
aa(lp2293
(F3502.0
I120
tp2294
a(F3708.0
I60
tp2295
a(F3855.0
I49
tp2296
a(F4359.0
I84
tp2297
a(F4410.0
I82
tp2298
a(F4450.0
I68
tp2299
a(F4978.0
I74
tp2300
a(F5026.0
I43
tp2301
a(F5135.0
I74
tp2302
a(F5227.0
I53
tp2303
a(F5398.0
I49
tp2304
a(F5559.0
I109
tp2305
a(F5593.0
I70
tp2306
a(F5663.0
I92
tp2307
a(F5861.0
I96
tp2308
a(F5892.0
I55
tp2309
a(F6127.0
I140
tp2310
a(F6199.0
I47
tp2311
aa(lp2312
(F10.0
I119
tp2313
a(F287.0
I40
tp2314
a(F355.0
I74
tp2315
a(F371.0
I140
tp2316
a(F478.0
I91
tp2317
a(F540.0
I80
tp2318
a(F741.0
I135
tp2319
a(F996.0
I128
tp2320
a(F1075.0
I45
tp2321
a(F1169.0
I80
tp2322
a(F1684.0
I43
tp2323
a(F2011.0
I58
tp2324
a(F2271.0
I140
tp2325
a(F5090.0
I52
tp2326
a(F5124.0
I128
tp2327
a(F5164.0
I76
tp2328
a(F5308.0
I36
tp2329
a(F5435.0
I53
tp2330
aa(lp2331
(F748.0
I98
tp2332
a(F2985.0
I58
tp2333
a(F3161.0
I126
tp2334
a(F3186.0
I25
tp2335
a(F3229.0
I140
tp2336
a(F3554.0
I131
tp2337
a(F3688.0
I105
tp2338
a(F4007.0
I72
tp2339
a(F4039.0
I44
tp2340
a(F4225.0
I79
tp2341
a(F4353.0
I140
tp2342
a(F4459.0
I47
tp2343
a(F4718.0
I36
tp2344
a(F5079.0
I20
tp2345
a(F5130.0
I30
tp2346
a(F5141.0
I32
tp2347
a(F5234.0
I8
tp2348
a(F5318.0
I97
tp2349
aa(lp2350
(F55.0
I65
tp2351
a(F128.0
I39
tp2352
a(F258.0
I132
tp2353
a(F325.0
I32
tp2354
a(F389.0
I42
tp2355
a(F439.0
I88
tp2356
a(F634.0
I62
tp2357
a(F679.0
I43
tp2358
a(F757.0
I91
tp2359
a(F786.0
I20
tp2360
a(F1188.0
I38
tp2361
a(F1204.0
I27
tp2362
a(F1286.0
I67
tp2363
a(F1546.0
I74
tp2364
a(F1648.0
I94
tp2365
a(F3010.0
I48
tp2366
a(F5465.0
I75
tp2367
aa(lp2368
(F202.0
I53
tp2369
a(F261.0
I60
tp2370
a(F722.0
I70
tp2371
a(F831.0
I81
tp2372
a(F1154.0
I40
tp2373
a(F1196.0
I62
tp2374
a(F1484.0
I35
tp2375
a(F2570.0
I16
tp2376
a(F2577.0
I21
tp2377
a(F2611.0
I86
tp2378
a(F2648.0
I62
tp2379
a(F2693.0
I24
tp2380
a(F2703.0
I25
tp2381
a(F2712.0
I22
tp2382
a(F2829.0
I137
tp2383
a(F2861.0
I88
tp2384
a(F2978.0
I21
tp2385
aa(lp2386
(F1676.0
I26
tp2387
a(F1752.0
I22
tp2388
a(F1758.0
I64
tp2389
a(F1845.0
I56
tp2390
a(F2012.0
I67
tp2391
a(F2065.0
I94
tp2392
a(F2120.0
I55
tp2393
a(F2294.0
I43
tp2394
a(F2353.0
I35
tp2395
a(F2484.0
I106
tp2396
a(F2522.0
I64
tp2397
a(F2536.0
I42
tp2398
a(F2598.0
I69
tp2399
a(F2729.0
I89
tp2400
a(F2741.0
I67
tp2401
a(F2855.0
I99
tp2402
a(F4426.0
I39
tp2403
aa(lp2404
(F1115.0
I100
tp2405
a(F1153.0
I89
tp2406
a(F1187.0
I25
tp2407
a(F1357.0
I38
tp2408
a(F1415.0
I140
tp2409
a(F1422.0
I133
tp2410
a(F1549.0
I127
tp2411
a(F1637.0
I83
tp2412
a(F1678.0
I43
tp2413
a(F1840.0
I128
tp2414
a(F1909.0
I78
tp2415
a(F1947.0
I62
tp2416
a(F2063.0
I94
tp2417
a(F2283.0
I84
tp2418
a(F2411.0
I65
tp2419
a(F5626.0
I110
tp2420
a(F5910.0
I139
tp2421
aa(lp2422
(F2.0
I123
tp2423
a(F332.0
I10
tp2424
a(F342.0
I72
tp2425
a(F387.0
I45
tp2426
a(F454.0
I38
tp2427
a(F928.0
I41
tp2428
a(F968.0
I28
tp2429
a(F2944.0
I127
tp2430
a(F4592.0
I45
tp2431
a(F4633.0
I54
tp2432
a(F4675.0
I70
tp2433
a(F4840.0
I28
tp2434
a(F5006.0
I49
tp2435
a(F5058.0
I45
tp2436
a(F5075.0
I79
tp2437
a(F5311.0
I94
tp2438
aa(lp2439
(F64.0
I100
tp2440
a(F296.0
I140
tp2441
a(F343.0
I51
tp2442
a(F486.0
I104
tp2443
a(F2226.0
I57
tp2444
a(F2254.0
I52
tp2445
a(F2345.0
I27
tp2446
a(F2365.0
I46
tp2447
a(F2389.0
I51
tp2448
a(F2466.0
I39
tp2449
a(F2568.0
I61
tp2450
a(F2669.0
I140
tp2451
a(F2677.0
I77
tp2452
a(F2719.0
I111
tp2453
a(F2820.0
I29
tp2454
a(F3280.0
I34
tp2455
aa(lp2456
(F419.0
I100
tp2457
a(F675.0
I12
tp2458
a(F725.0
I140
tp2459
a(F811.0
I13
tp2460
a(F907.0
I13
tp2461
a(F3407.0
I42
tp2462
a(F3543.0
I42
tp2463
a(F3896.0
I45
tp2464
a(F4548.0
I82
tp2465
a(F4619.0
I98
tp2466
a(F4840.0
I97
tp2467
a(F5253.0
I3
tp2468
a(F5495.0
I59
tp2469
a(F5888.0
I31
tp2470
a(F5989.0
I49
tp2471
a(F6171.0
I34
tp2472
aa(lp2473
(F304.0
I69
tp2474
a(F796.0
I67
tp2475
a(F992.0
I86
tp2476
a(F1094.0
I73
tp2477
a(F1159.0
I65
tp2478
a(F1283.0
I41
tp2479
a(F1355.0
I40
tp2480
a(F1397.0
I50
tp2481
a(F1615.0
I66
tp2482
a(F1954.0
I62
tp2483
a(F2080.0
I78
tp2484
a(F2438.0
I140
tp2485
a(F2478.0
I59
tp2486
a(F2554.0
I59
tp2487
a(F2620.0
I86
tp2488
a(F2669.0
I86
tp2489
aa(lp2490
(F237.0
I44
tp2491
a(F316.0
I37
tp2492
a(F613.0
I57
tp2493
a(F741.0
I46
tp2494
a(F837.0
I80
tp2495
a(F1274.0
I58
tp2496
a(F1548.0
I115
tp2497
a(F1871.0
I82
tp2498
a(F2050.0
I24
tp2499
a(F2223.0
I37
tp2500
a(F3726.0
I39
tp2501
a(F3893.0
I23
tp2502
a(F4321.0
I73
tp2503
a(F4579.0
I135
tp2504
a(F5803.0
I20
tp2505
aa(lp2506
(F469.0
I10
tp2507
a(F511.0
I81
tp2508
a(F1099.0
I115
tp2509
a(F1157.0
I98
tp2510
a(F1190.0
I36
tp2511
a(F1326.0
I33
tp2512
a(F1530.0
I58
tp2513
a(F1690.0
I38
tp2514
a(F1777.0
I98
tp2515
a(F1903.0
I98
tp2516
a(F2061.0
I119
tp2517
a(F2597.0
I41
tp2518
a(F2654.0
I69
tp2519
a(F2960.0
I140
tp2520
a(F3170.0
I54
tp2521
aa(lp2522
(F108.0
I27
tp2523
a(F279.0
I63
tp2524
a(F886.0
I140
tp2525
a(F945.0
I83
tp2526
a(F995.0
I94
tp2527
a(F999.0
I91
tp2528
a(F1056.0
I28
tp2529
a(F1101.0
I75
tp2530
a(F1147.0
I41
tp2531
a(F1293.0
I140
tp2532
a(F1313.0
I121
tp2533
a(F1621.0
I107
tp2534
a(F1995.0
I32
tp2535
a(F2046.0
I65
tp2536
a(F2640.0
I118
tp2537
aa(lp2538
(F1061.0
I88
tp2539
a(F1111.0
I106
tp2540
a(F1309.0
I113
tp2541
a(F1381.0
I120
tp2542
a(F1577.0
I139
tp2543
a(F1609.0
I86
tp2544
a(F1984.0
I78
tp2545
a(F2123.0
I13
tp2546
a(F2466.0
I104
tp2547
a(F2509.0
I55
tp2548
a(F2525.0
I22
tp2549
a(F2553.0
I58
tp2550
a(F2960.0
I28
tp2551
a(F3330.0
I126
tp2552
a(F3913.0
I112
tp2553
aa(lp2554
(F98.0
I79
tp2555
a(F101.0
I123
tp2556
a(F153.0
I53
tp2557
a(F185.0
I58
tp2558
a(F353.0
I80
tp2559
a(F431.0
I79
tp2560
a(F441.0
I15
tp2561
a(F873.0
I25
tp2562
a(F4127.0
I95
tp2563
a(F4767.0
I19
tp2564
a(F5034.0
I40
tp2565
a(F5074.0
I140
tp2566
a(F5081.0
I49
tp2567
a(F5095.0
I20
tp2568
a(F5152.0
I45
tp2569
aa(lp2570
(F830.0
I108
tp2571
a(F1858.0
I104
tp2572
a(F2708.0
I80
tp2573
a(F3155.0
I82
tp2574
a(F3258.0
I82
tp2575
a(F3296.0
I41
tp2576
a(F3335.0
I47
tp2577
a(F3484.0
I37
tp2578
a(F3552.0
I57
tp2579
a(F3571.0
I118
tp2580
a(F3643.0
I92
tp2581
a(F3693.0
I48
tp2582
a(F3717.0
I89
tp2583
a(F3917.0
I117
tp2584
a(F3952.0
I63
tp2585
aa(lp2586
(F816.0
I133
tp2587
a(F919.0
I85
tp2588
a(F1285.0
I76
tp2589
a(F1448.0
I101
tp2590
a(F1576.0
I139
tp2591
a(F1632.0
I78
tp2592
a(F1734.0
I98
tp2593
a(F1762.0
I122
tp2594
a(F1878.0
I25
tp2595
a(F2110.0
I94
tp2596
a(F2254.0
I28
tp2597
a(F3060.0
I112
tp2598
a(F3525.0
I118
tp2599
a(F4139.0
I62
tp2600
a(F4349.0
I91
tp2601
aa(lp2602
(F759.0
I74
tp2603
a(F2278.0
I55
tp2604
a(F2456.0
I124
tp2605
a(F2460.0
I44
tp2606
a(F2652.0
I71
tp2607
a(F3023.0
I103
tp2608
a(F3810.0
I107
tp2609
a(F4007.0
I55
tp2610
a(F4162.0
I105
tp2611
a(F4296.0
I69
tp2612
a(F4534.0
I108
tp2613
a(F4546.0
I118
tp2614
a(F4574.0
I66
tp2615
a(F5972.0
I140
tp2616
a(F5973.0
I140
tp2617
aa(lp2618
(F200.0
I77
tp2619
a(F808.0
I98
tp2620
a(F943.0
I51
tp2621
a(F1071.0
I59
tp2622
a(F1372.0
I137
tp2623
a(F1971.0
I75
tp2624
a(F2738.0
I53
tp2625
a(F2852.0
I40
tp2626
a(F3154.0
I140
tp2627
a(F3777.0
I87
tp2628
a(F4418.0
I104
tp2629
a(F4542.0
I53
tp2630
a(F4663.0
I40
tp2631
a(F4957.0
I135
tp2632
a(F5559.0
I66
tp2633
aa(lp2634
(F6.0
I25
tp2635
a(F77.0
I56
tp2636
a(F105.0
I44
tp2637
a(F125.0
I35
tp2638
a(F194.0
I66
tp2639
a(F351.0
I30
tp2640
a(F429.0
I59
tp2641
a(F596.0
I69
tp2642
a(F727.0
I84
tp2643
a(F960.0
I45
tp2644
a(F1122.0
I92
tp2645
a(F1544.0
I51
tp2646
a(F1760.0
I110
tp2647
a(F1887.0
I39
tp2648
aa(lp2649
(F126.0
I81
tp2650
a(F172.0
I55
tp2651
a(F333.0
I99
tp2652
a(F482.0
I53
tp2653
a(F805.0
I100
tp2654
a(F897.0
I116
tp2655
a(F974.0
I23
tp2656
a(F1016.0
I66
tp2657
a(F1056.0
I34
tp2658
a(F1083.0
I42
tp2659
a(F1096.0
I9
tp2660
a(F1159.0
I83
tp2661
a(F1212.0
I140
tp2662
a(F1264.0
I68
tp2663
aa(lp2664
(F1156.0
I37
tp2665
a(F1555.0
I27
tp2666
a(F1671.0
I140
tp2667
a(F2460.0
I73
tp2668
a(F2812.0
I57
tp2669
a(F3565.0
I21
tp2670
a(F3585.0
I24
tp2671
a(F3802.0
I43
tp2672
a(F4054.0
I50
tp2673
a(F4744.0
I19
tp2674
a(F4876.0
I32
tp2675
a(F4891.0
I27
tp2676
a(F5458.0
I25
tp2677
a(F6092.0
I22
tp2678
aa(lp2679
(F4015.0
I115
tp2680
a(F4029.0
I32
tp2681
a(F4128.0
I86
tp2682
a(F4159.0
I35
tp2683
a(F4245.0
I22
tp2684
a(F4303.0
I118
tp2685
a(F4345.0
I92
tp2686
a(F4486.0
I29
tp2687
a(F4522.0
I41
tp2688
a(F4538.0
I19
tp2689
a(F4631.0
I22
tp2690
a(F4656.0
I25
tp2691
a(F4794.0
I76
tp2692
a(F5175.0
I53
tp2693
aa(lp2694
(F49.0
I140
tp2695
a(F143.0
I75
tp2696
a(F348.0
I36
tp2697
a(F392.0
I39
tp2698
a(F543.0
I119
tp2699
a(F657.0
I68
tp2700
a(F891.0
I57
tp2701
a(F935.0
I39
tp2702
a(F4915.0
I35
tp2703
a(F4926.0
I140
tp2704
a(F4971.0
I77
tp2705
a(F5007.0
I81
tp2706
a(F5693.0
I33
tp2707
a(F5783.0
I134
tp2708
aa(lp2709
(F1927.0
I28
tp2710
a(F1956.0
I20
tp2711
a(F2224.0
I46
tp2712
a(F2482.0
I18
tp2713
a(F2525.0
I70
tp2714
a(F2624.0
I58
tp2715
a(F2654.0
I85
tp2716
a(F2784.0
I64
tp2717
a(F2946.0
I93
tp2718
a(F3034.0
I37
tp2719
a(F3191.0
I73
tp2720
a(F3290.0
I46
tp2721
a(F3841.0
I30
tp2722
a(F4948.0
I33
tp2723
aa(lp2724
(F202.0
I51
tp2725
a(F267.0
I70
tp2726
a(F740.0
I62
tp2727
a(F747.0
I86
tp2728
a(F1401.0
I18
tp2729
a(F1425.0
I41
tp2730
a(F1782.0
I34
tp2731
a(F2465.0
I19
tp2732
a(F2515.0
I29
tp2733
a(F2532.0
I140
tp2734
a(F4537.0
I27
tp2735
a(F4653.0
I45
tp2736
a(F4712.0
I104
tp2737
a(F4963.0
I105
tp2738
aa(lp2739
(F866.0
I140
tp2740
a(F874.0
I140
tp2741
a(F878.0
I140
tp2742
a(F884.0
I140
tp2743
a(F889.0
I140
tp2744
a(F896.0
I94
tp2745
a(F1075.0
I140
tp2746
a(F1177.0
I138
tp2747
a(F1599.0
I134
tp2748
a(F1623.0
I139
tp2749
a(F1869.0
I85
tp2750
a(F2046.0
I134
tp2751
a(F2118.0
I72
tp2752
a(F2543.0
I135
tp2753
aa(lp2754
(F212.0
I49
tp2755
a(F745.0
I47
tp2756
a(F890.0
I54
tp2757
a(F1085.0
I78
tp2758
a(F1171.0
I96
tp2759
a(F1729.0
I110
tp2760
a(F2009.0
I68
tp2761
a(F2306.0
I26
tp2762
a(F4478.0
I33
tp2763
a(F5119.0
I22
tp2764
a(F5195.0
I23
tp2765
a(F5646.0
I38
tp2766
a(F6105.0
I19
tp2767
aa(lp2768
(F37.0
I91
tp2769
a(F45.0
I101
tp2770
a(F136.0
I81
tp2771
a(F487.0
I39
tp2772
a(F578.0
I77
tp2773
a(F965.0
I98
tp2774
a(F981.0
I134
tp2775
a(F989.0
I85
tp2776
a(F1053.0
I37
tp2777
a(F1671.0
I62
tp2778
a(F5876.0
I90
tp2779
a(F5908.0
I140
tp2780
a(F6095.0
I84
tp2781
aa(lp2782
(F235.0
I60
tp2783
a(F346.0
I100
tp2784
a(F2633.0
I120
tp2785
a(F2956.0
I92
tp2786
a(F3050.0
I86
tp2787
a(F3072.0
I50
tp2788
a(F3103.0
I64
tp2789
a(F3128.0
I66
tp2790
a(F3167.0
I95
tp2791
a(F4437.0
I96
tp2792
a(F5110.0
I29
tp2793
a(F5135.0
I37
tp2794
a(F5245.0
I38
tp2795
aa(lp2796
(F1763.0
I55
tp2797
a(F1811.0
I74
tp2798
a(F1822.0
I20
tp2799
a(F1902.0
I72
tp2800
a(F2098.0
I95
tp2801
a(F2230.0
I54
tp2802
a(F2284.0
I26
tp2803
a(F2328.0
I27
tp2804
a(F3072.0
I43
tp2805
a(F4152.0
I102
tp2806
a(F4448.0
I20
tp2807
a(F4490.0
I108
tp2808
a(F6158.0
I82
tp2809
aa(lp2810
(F1866.0
I26
tp2811
a(F2098.0
I35
tp2812
a(F2211.0
I37
tp2813
a(F2309.0
I34
tp2814
a(F2354.0
I63
tp2815
a(F2540.0
I140
tp2816
a(F2616.0
I55
tp2817
a(F2661.0
I74
tp2818
a(F2726.0
I83
tp2819
a(F2762.0
I25
tp2820
a(F2808.0
I48
tp2821
a(F3973.0
I43
tp2822
a(F4671.0
I46
tp2823
aa(lp2824
(F2740.0
I71
tp2825
a(F2756.0
I77
tp2826
a(F2777.0
I76
tp2827
a(F2794.0
I119
tp2828
a(F2847.0
I45
tp2829
a(F2885.0
I47
tp2830
a(F2976.0
I60
tp2831
a(F3092.0
I31
tp2832
a(F3150.0
I73
tp2833
a(F3367.0
I44
tp2834
a(F3411.0
I72
tp2835
a(F4544.0
I77
tp2836
a(F4635.0
I34
tp2837
aa(lp2838
(F290.0
I88
tp2839
a(F390.0
I69
tp2840
a(F620.0
I106
tp2841
a(F797.0
I70
tp2842
a(F921.0
I132
tp2843
a(F1648.0
I60
tp2844
a(F1688.0
I80
tp2845
a(F1714.0
I105
tp2846
a(F1939.0
I29
tp2847
a(F2247.0
I140
tp2848
a(F2356.0
I61
tp2849
a(F2382.0
I114
tp2850
a(F2469.0
I35
tp2851
aa(lp2852
(F130.0
I78
tp2853
a(F137.0
I169
tp2854
a(F177.0
I134
tp2855
a(F244.0
I43
tp2856
a(F282.0
I117
tp2857
a(F655.0
I44
tp2858
a(F801.0
I1
tp2859
a(F925.0
I55
tp2860
a(F1004.0
I106
tp2861
a(F1144.0
I43
tp2862
a(F1163.0
I33
tp2863
a(F2901.0
I80
tp2864
a(F4998.0
I96
tp2865
aa(lp2866
(F1707.0
I30
tp2867
a(F1720.0
I87
tp2868
a(F3116.0
I73
tp2869
a(F3182.0
I65
tp2870
a(F3212.0
I112
tp2871
a(F3284.0
I61
tp2872
a(F3320.0
I73
tp2873
a(F3456.0
I123
tp2874
a(F4031.0
I40
tp2875
a(F4228.0
I30
tp2876
a(F4238.0
I26
tp2877
a(F4443.0
I40
tp2878
a(F6093.0
I61
tp2879
aa(lp2880
(F1235.0
I23
tp2881
a(F1295.0
I58
tp2882
a(F1329.0
I108
tp2883
a(F1384.0
I59
tp2884
a(F1445.0
I40
tp2885
a(F1479.0
I56
tp2886
a(F1510.0
I62
tp2887
a(F1536.0
I22
tp2888
a(F1977.0
I30
tp2889
a(F2529.0
I43
tp2890
a(F2590.0
I85
tp2891
a(F2798.0
I116
tp2892
a(F4366.0
I116
tp2893
aa(lp2894
(F434.0
I40
tp2895
a(F550.0
I36
tp2896
a(F742.0
I68
tp2897
a(F1054.0
I26
tp2898
a(F1646.0
I50
tp2899
a(F1826.0
I49
tp2900
a(F2346.0
I32
tp2901
a(F4256.0
I38
tp2902
a(F4926.0
I25
tp2903
a(F5156.0
I53
tp2904
a(F5345.0
I124
tp2905
a(F5538.0
I70
tp2906
a(F5558.0
I92
tp2907
aa(lp2908
(F3192.0
I107
tp2909
a(F4098.0
I63
tp2910
a(F4405.0
I116
tp2911
a(F4463.0
I105
tp2912
a(F4549.0
I140
tp2913
a(F4664.0
I98
tp2914
a(F4838.0
I43
tp2915
a(F4934.0
I75
tp2916
a(F5387.0
I138
tp2917
a(F5396.0
I70
tp2918
a(F5405.0
I68
tp2919
a(F5415.0
I122
tp2920
a(F5431.0
I85
tp2921
aa(lp2922
(F1034.0
I131
tp2923
a(F1227.0
I36
tp2924
a(F1649.0
I74
tp2925
a(F1838.0
I123
tp2926
a(F2064.0
I42
tp2927
a(F2468.0
I86
tp2928
a(F2671.0
I53
tp2929
a(F3783.0
I76
tp2930
a(F3990.0
I79
tp2931
a(F4069.0
I92
tp2932
a(F4163.0
I76
tp2933
a(F6070.0
I41
tp2934
aa(lp2935
(F2910.0
I138
tp2936
a(F2971.0
I130
tp2937
a(F3012.0
I80
tp2938
a(F3080.0
I98
tp2939
a(F3628.0
I130
tp2940
a(F3758.0
I107
tp2941
a(F4229.0
I68
tp2942
a(F4431.0
I48
tp2943
a(F4468.0
I51
tp2944
a(F4920.0
I56
tp2945
a(F5340.0
I118
tp2946
a(F5417.0
I121
tp2947
aa(lp2948
(F354.0
I34
tp2949
a(F825.0
I111
tp2950
a(F3534.0
I111
tp2951
a(F3561.0
I54
tp2952
a(F3575.0
I111
tp2953
a(F3590.0
I73
tp2954
a(F3668.0
I89
tp2955
a(F3749.0
I117
tp2956
a(F3807.0
I60
tp2957
a(F3905.0
I39
tp2958
a(F4016.0
I63
tp2959
a(F4320.0
I47
tp2960
aa(lp2961
(F4443.0
I76
tp2962
a(F4495.0
I56
tp2963
a(F4729.0
I76
tp2964
a(F4862.0
I23
tp2965
a(F4932.0
I131
tp2966
a(F5056.0
I73
tp2967
a(F5066.0
I19
tp2968
a(F5291.0
I26
tp2969
a(F5599.0
I33
tp2970
a(F5718.0
I30
tp2971
a(F5895.0
I30
tp2972
a(F6224.0
I47
tp2973
aa(lp2974
(F86.0
I28
tp2975
a(F108.0
I30
tp2976
a(F166.0
I69
tp2977
a(F188.0
I37
tp2978
a(F252.0
I74
tp2979
a(F291.0
I24
tp2980
a(F344.0
I54
tp2981
a(F596.0
I18
tp2982
a(F847.0
I88
tp2983
a(F892.0
I58
tp2984
a(F929.0
I45
tp2985
a(F986.0
I39
tp2986
aa(lp2987
(F1721.0
I49
tp2988
a(F1734.0
I31
tp2989
a(F1769.0
I82
tp2990
a(F1823.0
I44
tp2991
a(F1842.0
I42
tp2992
a(F1867.0
I136
tp2993
a(F1925.0
I41
tp2994
a(F2167.0
I42
tp2995
a(F2206.0
I25
tp2996
a(F2289.0
I44
tp2997
a(F2314.0
I74
tp2998
a(F2390.0
I48
tp2999
aa(lp3000
(F1018.0
I56
tp3001
a(F1102.0
I24
tp3002
a(F1210.0
I140
tp3003
a(F1506.0
I35
tp3004
a(F1521.0
I44
tp3005
a(F1608.0
I115
tp3006
a(F1669.0
I34
tp3007
a(F1784.0
I32
tp3008
a(F3159.0
I89
tp3009
a(F3254.0
I31
tp3010
a(F4554.0
I44
tp3011
a(F5176.0
I27
tp3012
aa(lp3013
(F52.0
I59
tp3014
a(F118.0
I30
tp3015
a(F727.0
I34
tp3016
a(F1058.0
I46
tp3017
a(F1092.0
I54
tp3018
a(F1201.0
I27
tp3019
a(F1462.0
I72
tp3020
a(F1658.0
I56
tp3021
a(F1850.0
I16
tp3022
a(F1973.0
I45
tp3023
a(F2566.0
I117
tp3024
a(F2627.0
I31
tp3025
aa(lp3026
(F339.0
I12
tp3027
a(F1371.0
I5
tp3028
a(F2281.0
I25
tp3029
a(F2455.0
I98
tp3030
a(F2984.0
I86
tp3031
a(F3233.0
I44
tp3032
a(F4673.0
I127
tp3033
a(F4769.0
I65
tp3034
a(F5082.0
I46
tp3035
a(F5317.0
I99
tp3036
a(F5495.0
I69
tp3037
a(F5874.0
I36
tp3038
aa(lp3039
(F240.0
I140
tp3040
a(F1512.0
I131
tp3041
a(F1968.0
I120
tp3042
a(F2068.0
I32
tp3043
a(F2779.0
I60
tp3044
a(F2838.0
I140
tp3045
a(F2952.0
I140
tp3046
a(F3033.0
I105
tp3047
a(F3083.0
I58
tp3048
a(F4528.0
I100
tp3049
a(F4589.0
I66
tp3050
a(F4641.0
I140
tp3051
aa(lp3052
(F3388.0
I86
tp3053
a(F3428.0
I111
tp3054
a(F3732.0
I83
tp3055
a(F3779.0
I72
tp3056
a(F5094.0
I97
tp3057
a(F5268.0
I120
tp3058
a(F5303.0
I69
tp3059
a(F5359.0
I73
tp3060
a(F5454.0
I97
tp3061
a(F5647.0
I102
tp3062
a(F5766.0
I76
tp3063
aa(lp3064
(F14.0
I140
tp3065
a(F95.0
I34
tp3066
a(F126.0
I41
tp3067
a(F176.0
I121
tp3068
a(F282.0
I74
tp3069
a(F305.0
I34
tp3070
a(F338.0
I38
tp3071
a(F422.0
I32
tp3072
a(F456.0
I42
tp3073
a(F469.0
I5
tp3074
a(F516.0
I35
tp3075
aa(lp3076
(F3585.0
I140
tp3077
a(F4642.0
I98
tp3078
a(F4897.0
I64
tp3079
a(F5197.0
I89
tp3080
a(F5369.0
I40
tp3081
a(F5414.0
I23
tp3082
a(F5449.0
I26
tp3083
a(F5542.0
I64
tp3084
a(F5666.0
I114
tp3085
a(F5839.0
I133
tp3086
a(F6137.0
I106
tp3087
aa(lp3088
(F185.0
I65
tp3089
a(F388.0
I102
tp3090
a(F941.0
I83
tp3091
a(F972.0
I111
tp3092
a(F1187.0
I38
tp3093
a(F1589.0
I71
tp3094
a(F2893.0
I36
tp3095
a(F3140.0
I37
tp3096
a(F3259.0
I140
tp3097
a(F3299.0
I140
tp3098
a(F3972.0
I64
tp3099
aa(lp3100
(F2653.0
I131
tp3101
a(F2693.0
I68
tp3102
a(F2881.0
I89
tp3103
a(F3564.0
I32
tp3104
a(F3967.0
I38
tp3105
a(F4130.0
I35
tp3106
a(F4135.0
I38
tp3107
a(F4490.0
I79
tp3108
a(F5479.0
I41
tp3109
a(F5722.0
I86
tp3110
a(F6178.0
I35
tp3111
aa(lp3112
(F3961.0
I55
tp3113
a(F4132.0
I33
tp3114
a(F4184.0
I69
tp3115
a(F4915.0
I106
tp3116
a(F5326.0
I21
tp3117
a(F5493.0
I40
tp3118
a(F5559.0
I64
tp3119
a(F5578.0
I35
tp3120
a(F5647.0
I27
tp3121
a(F6066.0
I58
tp3122
a(F6150.0
I67
tp3123
aa(lp3124
(F696.0
I31
tp3125
a(F954.0
I66
tp3126
a(F959.0
I56
tp3127
a(F1058.0
I84
tp3128
a(F1552.0
I52
tp3129
a(F1575.0
I51
tp3130
a(F1629.0
I120
tp3131
a(F4650.0
I34
tp3132
a(F5190.0
I69
tp3133
a(F5627.0
I57
tp3134
a(F5769.0
I47
tp3135
aa(lp3136
(F4.0
I88
tp3137
a(F519.0
I73
tp3138
a(F2624.0
I65
tp3139
a(F2641.0
I88
tp3140
a(F2697.0
I80
tp3141
a(F2769.0
I36
tp3142
a(F4062.0
I55
tp3143
a(F4517.0
I139
tp3144
a(F4901.0
I65
tp3145
a(F5695.0
I77
tp3146
a(F6020.0
I140
tp3147
aa(lp3148
(F371.0
I101
tp3149
a(F672.0
I33
tp3150
a(F705.0
I51
tp3151
a(F1013.0
I111
tp3152
a(F1322.0
I90
tp3153
a(F1444.0
I138
tp3154
a(F1636.0
I48
tp3155
a(F1676.0
I135
tp3156
a(F1829.0
I42
tp3157
a(F2050.0
I66
tp3158
a(F3075.0
I53
tp3159
aa(lp3160
(F535.0
I122
tp3161
a(F614.0
I112
tp3162
a(F1273.0
I47
tp3163
a(F1312.0
I113
tp3164
a(F1381.0
I140
tp3165
a(F1407.0
I78
tp3166
a(F1913.0
I80
tp3167
a(F2457.0
I80
tp3168
a(F2517.0
I71
tp3169
a(F2730.0
I115
tp3170
a(F4787.0
I122
tp3171
aa(lp3172
(F959.0
I103
tp3173
a(F1336.0
I70
tp3174
a(F1649.0
I116
tp3175
a(F1921.0
I103
tp3176
a(F2405.0
I132
tp3177
a(F3713.0
I111
tp3178
a(F3836.0
I139
tp3179
a(F3847.0
I140
tp3180
a(F4147.0
I123
tp3181
a(F4716.0
I140
tp3182
a(F4981.0
I31
tp3183
aa(lp3184
(F1088.0
I62
tp3185
a(F1389.0
I27
tp3186
a(F1721.0
I12
tp3187
a(F1744.0
I18
tp3188
a(F2301.0
I49
tp3189
a(F2321.0
I19
tp3190
a(F2866.0
I161
tp3191
a(F3090.0
I91
tp3192
a(F3146.0
I57
tp3193
a(F3323.0
I134
tp3194
a(F4206.0
I79
tp3195
aa(lp3196
(F97.0
I36
tp3197
a(F871.0
I99
tp3198
a(F965.0
I55
tp3199
a(F1126.0
I82
tp3200
a(F1678.0
I94
tp3201
a(F4473.0
I41
tp3202
a(F4613.0
I52
tp3203
a(F4686.0
I140
tp3204
a(F5517.0
I63
tp3205
a(F5596.0
I40
tp3206
a(F5673.0
I29
tp3207
aa(lp3208
(F106.0
I103
tp3209
a(F1427.0
I61
tp3210
a(F2294.0
I39
tp3211
a(F2683.0
I121
tp3212
a(F2972.0
I23
tp3213
a(F3070.0
I72
tp3214
a(F3090.0
I140
tp3215
a(F3293.0
I60
tp3216
a(F3366.0
I19
tp3217
a(F3457.0
I140
tp3218
a(F3786.0
I12
tp3219
aa(lp3220
(F3461.0
I32
tp3221
a(F3690.0
I58
tp3222
a(F3774.0
I47
tp3223
a(F3992.0
I47
tp3224
a(F4441.0
I52
tp3225
a(F4531.0
I41
tp3226
a(F4650.0
I73
tp3227
a(F4725.0
I90
tp3228
a(F4800.0
I52
tp3229
a(F5486.0
I126
tp3230
a(F5947.0
I31
tp3231
aa(lp3232
(F320.0
I80
tp3233
a(F357.0
I44
tp3234
a(F439.0
I35
tp3235
a(F467.0
I42
tp3236
a(F551.0
I140
tp3237
a(F554.0
I127
tp3238
a(F570.0
I100
tp3239
a(F592.0
I33
tp3240
a(F619.0
I70
tp3241
a(F1918.0
I81
tp3242
a(F1934.0
I52
tp3243
aa(lp3244
(F3102.0
I62
tp3245
a(F3153.0
I140
tp3246
a(F3997.0
I87
tp3247
a(F4022.0
I99
tp3248
a(F4358.0
I43
tp3249
a(F4371.0
I134
tp3250
a(F4389.0
I60
tp3251
a(F4411.0
I140
tp3252
a(F4445.0
I140
tp3253
a(F4465.0
I140
tp3254
a(F6238.0
I64
tp3255
aa(lp3256
(F1197.0
I30
tp3257
a(F1544.0
I39
tp3258
a(F1953.0
I85
tp3259
a(F2083.0
I87
tp3260
a(F2130.0
I111
tp3261
a(F2156.0
I68
tp3262
a(F2171.0
I116
tp3263
a(F2589.0
I114
tp3264
a(F2736.0
I87
tp3265
a(F3068.0
I61
tp3266
a(F3114.0
I95
tp3267
aa(lp3268
(F1636.0
I21
tp3269
a(F1756.0
I79
tp3270
a(F2092.0
I11
tp3271
a(F3164.0
I25
tp3272
a(F3823.0
I3
tp3273
a(F4505.0
I30
tp3274
a(F4709.0
I54
tp3275
a(F4733.0
I33
tp3276
a(F4817.0
I23
tp3277
a(F4934.0
I27
tp3278
a(F5051.0
I26
tp3279
aa(lp3280
(F36.0
I20
tp3281
a(F954.0
I34
tp3282
a(F1210.0
I134
tp3283
a(F1242.0
I80
tp3284
a(F1465.0
I52
tp3285
a(F1487.0
I85
tp3286
a(F1735.0
I94
tp3287
a(F1794.0
I63
tp3288
a(F1915.0
I54
tp3289
a(F3699.0
I49
tp3290
a(F4643.0
I110
tp3291
aa(lp3292
(F561.0
I106
tp3293
a(F828.0
I80
tp3294
a(F984.0
I140
tp3295
a(F1257.0
I86
tp3296
a(F1647.0
I69
tp3297
a(F1867.0
I59
tp3298
a(F2024.0
I92
tp3299
a(F3854.0
I72
tp3300
a(F4012.0
I131
tp3301
a(F4436.0
I66
tp3302
a(F4612.0
I105
tp3303
aa(lp3304
(F77.0
I47
tp3305
a(F136.0
I81
tp3306
a(F191.0
I64
tp3307
a(F455.0
I19
tp3308
a(F476.0
I21
tp3309
a(F584.0
I16
tp3310
a(F587.0
I66
tp3311
a(F751.0
I25
tp3312
a(F840.0
I119
tp3313
a(F845.0
I68
tp3314
a(F930.0
I11
tp3315
aa(lp3316
(F3440.0
I47
tp3317
a(F4167.0
I100
tp3318
a(F5637.0
I77
tp3319
a(F5639.0
I82
tp3320
a(F5646.0
I119
tp3321
a(F5841.0
I68
tp3322
a(F5877.0
I107
tp3323
a(F6194.0
I100
tp3324
a(F6209.0
I95
tp3325
a(F6221.0
I77
tp3326
aa(lp3327
(F2773.0
I5
tp3328
a(F2861.0
I92
tp3329
a(F2884.0
I42
tp3330
a(F3175.0
I78
tp3331
a(F3217.0
I47
tp3332
a(F3245.0
I66
tp3333
a(F5294.0
I27
tp3334
a(F5367.0
I19
tp3335
a(F5377.0
I27
tp3336
a(F5398.0
I56
tp3337
aa(lp3338
(F2997.0
I27
tp3339
a(F3015.0
I30
tp3340
a(F3040.0
I45
tp3341
a(F3204.0
I35
tp3342
a(F3233.0
I38
tp3343
a(F3249.0
I33
tp3344
a(F3448.0
I36
tp3345
a(F3624.0
I68
tp3346
a(F3906.0
I83
tp3347
a(F5280.0
I37
tp3348
aa(lp3349
(F100.0
I23
tp3350
a(F146.0
I24
tp3351
a(F188.0
I26
tp3352
a(F237.0
I27
tp3353
a(F288.0
I30
tp3354
a(F766.0
I90
tp3355
a(F1009.0
I82
tp3356
a(F1156.0
I84
tp3357
a(F1351.0
I30
tp3358
a(F6031.0
I57
tp3359
aa(lp3360
(F15.0
I69
tp3361
a(F1568.0
I47
tp3362
a(F1655.0
I19
tp3363
a(F2221.0
I68
tp3364
a(F2687.0
I31
tp3365
a(F2873.0
I52
tp3366
a(F3478.0
I15
tp3367
a(F3720.0
I28
tp3368
a(F3868.0
I131
tp3369
a(F4060.0
I79
tp3370
aa(lp3371
(F854.0
I92
tp3372
a(F1406.0
I126
tp3373
a(F2603.0
I130
tp3374
a(F2999.0
I115
tp3375
a(F4022.0
I78
tp3376
a(F4667.0
I80
tp3377
a(F4730.0
I113
tp3378
a(F5101.0
I94
tp3379
a(F5142.0
I32
tp3380
a(F5220.0
I85
tp3381
aa(lp3382
(F4882.0
I45
tp3383
a(F5333.0
I38
tp3384
a(F5346.0
I96
tp3385
a(F5380.0
I121
tp3386
a(F5395.0
I90
tp3387
a(F5412.0
I71
tp3388
a(F5434.0
I68
tp3389
a(F5575.0
I79
tp3390
a(F5623.0
I74
tp3391
a(F6132.0
I53
tp3392
aa(lp3393
(F4216.0
I47
tp3394
a(F4262.0
I53
tp3395
a(F4359.0
I41
tp3396
a(F4465.0
I38
tp3397
a(F4554.0
I42
tp3398
a(F5627.0
I98
tp3399
a(F5885.0
I72
tp3400
a(F5925.0
I67
tp3401
a(F6024.0
I98
tp3402
a(F6143.0
I65
tp3403
aa(lp3404
(F622.0
I23
tp3405
a(F701.0
I57
tp3406
a(F707.0
I69
tp3407
a(F734.0
I110
tp3408
a(F768.0
I88
tp3409
a(F873.0
I114
tp3410
a(F1513.0
I36
tp3411
a(F4286.0
I85
tp3412
a(F4661.0
I92
tp3413
a(F4676.0
I105
tp3414
aa(lp3415
(F849.0
I70
tp3416
a(F977.0
I91
tp3417
a(F1121.0
I121
tp3418
a(F1234.0
I27
tp3419
a(F1299.0
I32
tp3420
a(F1422.0
I31
tp3421
a(F1429.0
I20
tp3422
a(F2778.0
I99
tp3423
a(F3217.0
I107
tp3424
a(F4008.0
I18
tp3425
aa(lp3426
(F4725.0
I140
tp3427
a(F4818.0
I64
tp3428
a(F4853.0
I78
tp3429
a(F5105.0
I15
tp3430
a(F5245.0
I99
tp3431
a(F5404.0
I113
tp3432
a(F5525.0
I38
tp3433
a(F5594.0
I91
tp3434
a(F5722.0
I58
tp3435
a(F5878.0
I29
tp3436
aa(lp3437
(F2782.0
I140
tp3438
a(F2936.0
I138
tp3439
a(F3600.0
I116
tp3440
a(F3827.0
I30
tp3441
a(F3841.0
I60
tp3442
a(F4004.0
I36
tp3443
a(F4153.0
I45
tp3444
a(F4218.0
I139
tp3445
a(F4313.0
I140
tp3446
aa(lp3447
(F1684.0
I116
tp3448
a(F2001.0
I88
tp3449
a(F2031.0
I83
tp3450
a(F2603.0
I52
tp3451
a(F2862.0
I52
tp3452
a(F2886.0
I92
tp3453
a(F3010.0
I61
tp3454
a(F3431.0
I84
tp3455
a(F3788.0
I66
tp3456
aa(lp3457
(F289.0
I18
tp3458
a(F506.0
I85
tp3459
a(F3093.0
I42
tp3460
a(F3874.0
I44
tp3461
a(F3885.0
I71
tp3462
a(F3910.0
I124
tp3463
a(F4953.0
I69
tp3464
a(F4981.0
I140
tp3465
a(F4987.0
I64
tp3466
aa(lp3467
(F154.0
I52
tp3468
a(F1426.0
I54
tp3469
a(F2643.0
I38
tp3470
a(F2951.0
I121
tp3471
a(F2989.0
I36
tp3472
a(F3202.0
I35
tp3473
a(F3528.0
I31
tp3474
a(F4773.0
I78
tp3475
a(F6124.0
I59
tp3476
aa(lp3477
(F938.0
I35
tp3478
a(F1573.0
I59
tp3479
a(F1926.0
I30
tp3480
a(F2198.0
I20
tp3481
a(F2539.0
I114
tp3482
a(F3100.0
I46
tp3483
a(F3674.0
I52
tp3484
a(F4286.0
I54
tp3485
a(F4438.0
I79
tp3486
aa(lp3487
(F1659.0
I134
tp3488
a(F2248.0
I95
tp3489
a(F2282.0
I131
tp3490
a(F3357.0
I129
tp3491
a(F4835.0
I53
tp3492
a(F4992.0
I27
tp3493
a(F5116.0
I27
tp3494
a(F5674.0
I34
tp3495
a(F5822.0
I33
tp3496
aa(lp3497
(F1691.0
I75
tp3498
a(F2952.0
I140
tp3499
a(F2982.0
I47
tp3500
a(F3252.0
I85
tp3501
a(F3411.0
I58
tp3502
a(F3826.0
I78
tp3503
a(F3862.0
I77
tp3504
a(F4495.0
I94
tp3505
a(F5515.0
I125
tp3506
aa(lp3507
(F57.0
I72
tp3508
a(F184.0
I35
tp3509
a(F292.0
I90
tp3510
a(F320.0
I89
tp3511
a(F1331.0
I45
tp3512
a(F1934.0
I133
tp3513
a(F2541.0
I95
tp3514
a(F3133.0
I52
tp3515
a(F3733.0
I34
tp3516
aa(lp3517
(F1883.0
I32
tp3518
a(F3083.0
I43
tp3519
a(F3106.0
I58
tp3520
a(F3132.0
I132
tp3521
a(F3189.0
I54
tp3522
a(F3502.0
I70
tp3523
a(F4019.0
I34
tp3524
a(F4286.0
I48
tp3525
a(F4843.0
I43
tp3526
aa(lp3527
(F108.0
I94
tp3528
a(F341.0
I10
tp3529
a(F348.0
I61
tp3530
a(F468.0
I86
tp3531
a(F643.0
I41
tp3532
a(F2496.0
I97
tp3533
a(F2576.0
I70
tp3534
a(F3459.0
I76
tp3535
a(F3657.0
I64
tp3536
aa(lp3537
(F3209.0
I63
tp3538
a(F3274.0
I83
tp3539
a(F3293.0
I64
tp3540
a(F3302.0
I118
tp3541
a(F3829.0
I16
tp3542
a(F4941.0
I14
tp3543
a(F4965.0
I16
tp3544
a(F5797.0
I58
tp3545
a(F5849.0
I80
tp3546
aa(lp3547
(F3197.0
I91
tp3548
a(F3280.0
I93
tp3549
a(F3355.0
I102
tp3550
a(F3747.0
I111
tp3551
a(F3757.0
I91
tp3552
a(F3999.0
I125
tp3553
a(F4154.0
I134
tp3554
a(F4566.0
I136
tp3555
a(F4868.0
I117
tp3556
aa(lp3557
(F259.0
I72
tp3558
a(F268.0
I140
tp3559
a(F300.0
I86
tp3560
a(F310.0
I55
tp3561
a(F316.0
I78
tp3562
a(F336.0
I72
tp3563
a(F348.0
I139
tp3564
a(F385.0
I94
tp3565
aa(lp3566
(F480.0
I129
tp3567
a(F2917.0
I138
tp3568
a(F3081.0
I59
tp3569
a(F3320.0
I140
tp3570
a(F3370.0
I104
tp3571
a(F3421.0
I107
tp3572
a(F4285.0
I125
tp3573
a(F4450.0
I122
tp3574
aa(lp3575
(F3092.0
I31
tp3576
a(F3365.0
I41
tp3577
a(F4369.0
I19
tp3578
a(F4512.0
I52
tp3579
a(F4619.0
I27
tp3580
a(F5810.0
I21
tp3581
a(F5834.0
I44
tp3582
a(F6041.0
I54
tp3583
aa(lp3584
(F4691.0
I47
tp3585
a(F4732.0
I98
tp3586
a(F4749.0
I33
tp3587
a(F4829.0
I68
tp3588
a(F4869.0
I60
tp3589
a(F4916.0
I76
tp3590
a(F5148.0
I62
tp3591
a(F6213.0
I94
tp3592
aa(lp3593
(F2469.0
I51
tp3594
a(F2487.0
I18
tp3595
a(F3838.0
I51
tp3596
a(F4059.0
I52
tp3597
a(F4091.0
I49
tp3598
a(F4252.0
I58
tp3599
a(F4663.0
I73
tp3600
a(F4958.0
I59
tp3601
aa(lp3602
(F2455.0
I94
tp3603
a(F2513.0
I112
tp3604
a(F2683.0
I114
tp3605
a(F2741.0
I67
tp3606
a(F2747.0
I68
tp3607
a(F3976.0
I71
tp3608
a(F4022.0
I56
tp3609
a(F4373.0
I91
tp3610
aa(lp3611
(F1813.0
I102
tp3612
a(F1865.0
I88
tp3613
a(F2013.0
I70
tp3614
a(F2515.0
I39
tp3615
a(F2544.0
I140
tp3616
a(F2677.0
I121
tp3617
a(F2731.0
I48
tp3618
a(F2852.0
I107
tp3619
aa(lp3620
(F4715.0
I26
tp3621
a(F4877.0
I23
tp3622
a(F5059.0
I68
tp3623
a(F5237.0
I21
tp3624
a(F5455.0
I51
tp3625
a(F5494.0
I63
tp3626
a(F5953.0
I93
tp3627
a(F6014.0
I34
tp3628
aa(lp3629
(F520.0
I24
tp3630
a(F2342.0
I106
tp3631
a(F2371.0
I54
tp3632
a(F2373.0
I122
tp3633
a(F2407.0
I58
tp3634
a(F2446.0
I55
tp3635
a(F2464.0
I82
tp3636
a(F4812.0
I92
tp3637
aa(lp3638
(F62.0
I119
tp3639
a(F479.0
I89
tp3640
a(F641.0
I59
tp3641
a(F854.0
I116
tp3642
a(F995.0
I140
tp3643
a(F1069.0
I140
tp3644
a(F5524.0
I61
tp3645
a(F6113.0
I47
tp3646
aa(lp3647
(F3336.0
I102
tp3648
a(F3449.0
I140
tp3649
a(F5006.0
I53
tp3650
a(F5696.0
I44
tp3651
a(F5820.0
I88
tp3652
a(F5886.0
I140
tp3653
a(F5952.0
I33
tp3654
a(F5980.0
I15
tp3655
aa(lp3656
(F3912.0
I36
tp3657
a(F3933.0
I20
tp3658
a(F4386.0
I71
tp3659
a(F4719.0
I59
tp3660
a(F5084.0
I51
tp3661
a(F5837.0
I61
tp3662
a(F5954.0
I37
tp3663
a(F6008.0
I42
tp3664
aa(lp3665
(F2670.0
I87
tp3666
a(F3241.0
I75
tp3667
a(F3444.0
I67
tp3668
a(F3492.0
I63
tp3669
a(F3579.0
I51
tp3670
a(F3702.0
I37
tp3671
a(F3922.0
I73
tp3672
a(F4157.0
I61
tp3673
aa(lp3674
(F311.0
I20
tp3675
a(F601.0
I63
tp3676
a(F925.0
I71
tp3677
a(F1080.0
I27
tp3678
a(F3295.0
I23
tp3679
a(F4437.0
I38
tp3680
a(F5928.0
I13
tp3681
a(F6112.0
I52
tp3682
aa(lp3683
(F80.0
I57
tp3684
a(F269.0
I6
tp3685
a(F402.0
I129
tp3686
a(F449.0
I59
tp3687
a(F2060.0
I86
tp3688
a(F2498.0
I129
tp3689
a(F5367.0
I35
tp3690
a(F5943.0
I108
tp3691
aa(lp3692
(F75.0
I63
tp3693
a(F267.0
I98
tp3694
a(F329.0
I140
tp3695
a(F1506.0
I56
tp3696
a(F2431.0
I109
tp3697
a(F5805.0
I110
tp3698
a(F5852.0
I108
tp3699
a(F5916.0
I36
tp3700
aa(lp3701
(F765.0
I56
tp3702
a(F790.0
I86
tp3703
a(F813.0
I69
tp3704
a(F2643.0
I81
tp3705
a(F4401.0
I91
tp3706
a(F4414.0
I49
tp3707
a(F6157.0
I84
tp3708
a(F6178.0
I42
tp3709
aa(lp3710
(F2290.0
I10
tp3711
a(F2388.0
I22
tp3712
a(F2405.0
I26
tp3713
a(F2443.0
I54
tp3714
a(F2542.0
I40
tp3715
a(F2592.0
I61
tp3716
a(F2606.0
I135
tp3717
a(F2696.0
I55
tp3718
aa(lp3719
(F1017.0
I59
tp3720
a(F1041.0
I89
tp3721
a(F1168.0
I43
tp3722
a(F1192.0
I104
tp3723
a(F2581.0
I82
tp3724
a(F2599.0
I98
tp3725
a(F2750.0
I140
tp3726
a(F5442.0
I19
tp3727
aa(lp3728
(F2540.0
I77
tp3729
a(F2560.0
I72
tp3730
a(F2568.0
I116
tp3731
a(F2575.0
I76
tp3732
a(F2582.0
I98
tp3733
a(F2594.0
I54
tp3734
a(F2652.0
I111
tp3735
a(F2721.0
I86
tp3736
aa(lp3737
(F713.0
I62
tp3738
a(F879.0
I31
tp3739
a(F1177.0
I47
tp3740
a(F1525.0
I109
tp3741
a(F1643.0
I56
tp3742
a(F1712.0
I46
tp3743
a(F1920.0
I81
tp3744
a(F2245.0
I12
tp3745
aa(lp3746
(F1379.0
I139
tp3747
a(F1983.0
I138
tp3748
a(F3139.0
I59
tp3749
a(F3417.0
I90
tp3750
a(F4166.0
I88
tp3751
a(F5120.0
I108
tp3752
a(F5168.0
I101
tp3753
a(F5434.0
I5
tp3754
aa(lp3755
(F883.0
I74
tp3756
a(F911.0
I76
tp3757
a(F1682.0
I66
tp3758
a(F1796.0
I78
tp3759
a(F3172.0
I140
tp3760
a(F3182.0
I72
tp3761
a(F4019.0
I47
tp3762
a(F4138.0
I66
tp3763
aa(lp3764
(F18.0
I61
tp3765
a(F81.0
I95
tp3766
a(F104.0
I102
tp3767
a(F211.0
I39
tp3768
a(F1293.0
I68
tp3769
a(F1415.0
I101
tp3770
a(F1617.0
I32
tp3771
a(F1681.0
I36
tp3772
aa(lp3773
(F6.0
I114
tp3774
a(F131.0
I78
tp3775
a(F192.0
I33
tp3776
a(F239.0
I62
tp3777
a(F279.0
I20
tp3778
a(F372.0
I30
tp3779
a(F411.0
I54
tp3780
a(F490.0
I25
tp3781
aa(lp3782
(F98.0
I67
tp3783
a(F408.0
I34
tp3784
a(F542.0
I14
tp3785
a(F607.0
I46
tp3786
a(F665.0
I41
tp3787
a(F3642.0
I118
tp3788
a(F5486.0
I54
tp3789
a(F6009.0
I90
tp3790
aa(lp3791
(F202.0
I140
tp3792
a(F2932.0
I65
tp3793
a(F2989.0
I110
tp3794
a(F3314.0
I94
tp3795
a(F3499.0
I79
tp3796
a(F3980.0
I124
tp3797
a(F4963.0
I140
tp3798
a(F5027.0
I140
tp3799
aa(lp3800
(F4612.0
I80
tp3801
a(F4675.0
I140
tp3802
a(F4784.0
I94
tp3803
a(F4850.0
I124
tp3804
a(F5208.0
I139
tp3805
a(F5515.0
I65
tp3806
a(F5795.0
I84
tp3807
a(F6160.0
I83
tp3808
aa(lp3809
(F1738.0
I77
tp3810
a(F3304.0
I46
tp3811
a(F3453.0
I36
tp3812
a(F3844.0
I48
tp3813
a(F3851.0
I114
tp3814
a(F3875.0
I104
tp3815
a(F3895.0
I119
tp3816
aa(lp3817
(F3412.0
I64
tp3818
a(F3526.0
I118
tp3819
a(F3785.0
I81
tp3820
a(F4776.0
I81
tp3821
a(F5052.0
I65
tp3822
a(F5206.0
I112
tp3823
a(F5398.0
I36
tp3824
aa(lp3825
(F178.0
I106
tp3826
a(F258.0
I72
tp3827
a(F451.0
I110
tp3828
a(F470.0
I21
tp3829
a(F1158.0
I69
tp3830
a(F1258.0
I33
tp3831
a(F1403.0
I13
tp3832
aa(lp3833
(F4382.0
I60
tp3834
a(F4606.0
I35
tp3835
a(F4622.0
I43
tp3836
a(F4652.0
I75
tp3837
a(F4699.0
I88
tp3838
a(F4762.0
I68
tp3839
a(F4845.0
I121
tp3840
aa(lp3841
(F772.0
I77
tp3842
a(F1204.0
I23
tp3843
a(F4636.0
I55
tp3844
a(F5435.0
I112
tp3845
a(F5468.0
I96
tp3846
a(F5539.0
I44
tp3847
a(F5547.0
I85
tp3848
aa(lp3849
(F188.0
I129
tp3850
a(F219.0
I60
tp3851
a(F230.0
I10
tp3852
a(F337.0
I79
tp3853
a(F786.0
I69
tp3854
a(F834.0
I125
tp3855
a(F2335.0
I15
tp3856
aa(lp3857
(F492.0
I93
tp3858
a(F517.0
I46
tp3859
a(F1174.0
I103
tp3860
a(F1454.0
I81
tp3861
a(F1541.0
I102
tp3862
a(F1934.0
I78
tp3863
a(F4814.0
I140
tp3864
aa(lp3865
(F753.0
I30
tp3866
a(F962.0
I39
tp3867
a(F1289.0
I140
tp3868
a(F2796.0
I135
tp3869
a(F2881.0
I85
tp3870
a(F3006.0
I119
tp3871
a(F3908.0
I56
tp3872
aa(lp3873
(F632.0
I91
tp3874
a(F1473.0
I26
tp3875
a(F1696.0
I40
tp3876
a(F2695.0
I82
tp3877
a(F2779.0
I56
tp3878
a(F3335.0
I80
tp3879
a(F3637.0
I38
tp3880
aa(lp3881
(F926.0
I123
tp3882
a(F1700.0
I34
tp3883
a(F2679.0
I98
tp3884
a(F4246.0
I32
tp3885
a(F4323.0
I42
tp3886
a(F4709.0
I26
tp3887
a(F4916.0
I31
tp3888
aa(lp3889
(F1399.0
I67
tp3890
a(F2767.0
I134
tp3891
a(F3351.0
I87
tp3892
a(F5074.0
I81
tp3893
a(F5200.0
I47
tp3894
a(F5715.0
I68
tp3895
a(F6171.0
I107
tp3896
aa(lp3897
(F3380.0
I98
tp3898
a(F3671.0
I48
tp3899
a(F3693.0
I51
tp3900
a(F4012.0
I125
tp3901
a(F4593.0
I32
tp3902
a(F4731.0
I48
tp3903
a(F6183.0
I26
tp3904
aa(lp3905
(F2852.0
I40
tp3906
a(F3346.0
I71
tp3907
a(F3853.0
I61
tp3908
a(F3984.0
I64
tp3909
a(F4049.0
I140
tp3910
a(F4216.0
I71
tp3911
a(F5265.0
I75
tp3912
aa(lp3913
(F3126.0
I67
tp3914
a(F3241.0
I40
tp3915
a(F3277.0
I72
tp3916
a(F3360.0
I94
tp3917
a(F3551.0
I61
tp3918
a(F3918.0
I49
tp3919
a(F4424.0
I58
tp3920
aa(lp3921
(F656.0
I62
tp3922
a(F778.0
I68
tp3923
a(F854.0
I90
tp3924
a(F927.0
I97
tp3925
a(F942.0
I84
tp3926
a(F2622.0
I50
tp3927
a(F3147.0
I52
tp3928
aa(lp3929
(F46.0
I88
tp3930
a(F3112.0
I43
tp3931
a(F3121.0
I67
tp3932
a(F3281.0
I64
tp3933
a(F3480.0
I15
tp3934
a(F3621.0
I26
tp3935
a(F4030.0
I45
tp3936
aa(lp3937
(F970.0
I50
tp3938
a(F1139.0
I43
tp3939
a(F1150.0
I25
tp3940
a(F1259.0
I49
tp3941
a(F1379.0
I57
tp3942
a(F1534.0
I99
tp3943
a(F1732.0
I68
tp3944
aa(lp3945
(F2594.0
I48
tp3946
a(F4484.0
I31
tp3947
a(F4833.0
I22
tp3948
a(F5014.0
I93
tp3949
a(F5190.0
I77
tp3950
a(F5515.0
I33
tp3951
a(F6144.0
I100
tp3952
aa(lp3953
(F496.0
I22
tp3954
a(F875.0
I31
tp3955
a(F893.0
I85
tp3956
a(F2129.0
I56
tp3957
a(F2859.0
I43
tp3958
a(F3605.0
I109
tp3959
a(F4140.0
I20
tp3960
aa(lp3961
(F2007.0
I42
tp3962
a(F3155.0
I24
tp3963
a(F3402.0
I20
tp3964
a(F3616.0
I43
tp3965
a(F5130.0
I140
tp3966
a(F5314.0
I21
tp3967
a(F5687.0
I62
tp3968
aa(lp3969
(F5266.0
I24
tp3970
a(F5284.0
I91
tp3971
a(F5293.0
I83
tp3972
a(F5297.0
I79
tp3973
a(F5315.0
I79
tp3974
a(F5326.0
I79
tp3975
a(F5441.0
I80
tp3976
aa(lp3977
(F419.0
I109
tp3978
a(F520.0
I76
tp3979
a(F597.0
I109
tp3980
a(F711.0
I105
tp3981
a(F755.0
I135
tp3982
a(F2163.0
I106
tp3983
a(F2441.0
I93
tp3984
aa(lp3985
(F5104.0
I31
tp3986
a(F5111.0
I67
tp3987
a(F5153.0
I21
tp3988
a(F5229.0
I46
tp3989
a(F5405.0
I40
tp3990
a(F5528.0
I140
tp3991
a(F5622.0
I40
tp3992
aa(lp3993
(F2292.0
I81
tp3994
a(F2326.0
I45
tp3995
a(F2353.0
I71
tp3996
a(F2547.0
I138
tp3997
a(F2556.0
I91
tp3998
a(F2605.0
I65
tp3999
aa(lp4000
(F2307.0
I40
tp4001
a(F2657.0
I128
tp4002
a(F4290.0
I17
tp4003
a(F5357.0
I30
tp4004
a(F5952.0
I99
tp4005
a(F5955.0
I57
tp4006
aa(lp4007
(F415.0
I46
tp4008
a(F2017.0
I119
tp4009
a(F2267.0
I87
tp4010
a(F2908.0
I125
tp4011
a(F5004.0
I40
tp4012
a(F6188.0
I73
tp4013
aa(lp4014
(F553.0
I64
tp4015
a(F753.0
I136
tp4016
a(F2189.0
I42
tp4017
a(F3969.0
I101
tp4018
a(F4462.0
I119
tp4019
a(F6090.0
I78
tp4020
aa(lp4021
(F619.0
I124
tp4022
a(F773.0
I140
tp4023
a(F838.0
I117
tp4024
a(F885.0
I30
tp4025
a(F1007.0
I45
tp4026
a(F6058.0
I63
tp4027
aa(lp4028
(F54.0
I16
tp4029
a(F416.0
I32
tp4030
a(F497.0
I45
tp4031
a(F4351.0
I16
tp4032
a(F5013.0
I140
tp4033
a(F5465.0
I21
tp4034
aa(lp4035
(F582.0
I40
tp4036
a(F3602.0
I62
tp4037
a(F3828.0
I25
tp4038
a(F3970.0
I62
tp4039
a(F3978.0
I63
tp4040
a(F4274.0
I34
tp4041
aa(lp4042
(F17.0
I123
tp4043
a(F32.0
I18
tp4044
a(F677.0
I118
tp4045
a(F820.0
I68
tp4046
a(F1085.0
I134
tp4047
a(F6201.0
I65
tp4048
aa(lp4049
(F115.0
I60
tp4050
a(F898.0
I42
tp4051
a(F959.0
I65
tp4052
a(F3253.0
I111
tp4053
a(F4299.0
I110
tp4054
a(F4441.0
I124
tp4055
aa(lp4056
(F366.0
I117
tp4057
a(F875.0
I64
tp4058
a(F1381.0
I49
tp4059
a(F1585.0
I66
tp4060
a(F2199.0
I130
tp4061
a(F2426.0
I35
tp4062
aa(lp4063
(F861.0
I88
tp4064
a(F2181.0
I32
tp4065
a(F4662.0
I71
tp4066
a(F4785.0
I67
tp4067
a(F5321.0
I19
tp4068
a(F6188.0
I101
tp4069
aa(lp4070
(F1185.0
I103
tp4071
a(F1237.0
I93
tp4072
a(F1441.0
I43
tp4073
a(F1598.0
I90
tp4074
a(F2132.0
I70
tp4075
a(F2945.0
I37
tp4076
aa(lp4077
(F2030.0
I20
tp4078
a(F2042.0
I29
tp4079
a(F2053.0
I36
tp4080
a(F2067.0
I34
tp4081
a(F2110.0
I55
tp4082
a(F3456.0
I8
tp4083
aa(lp4084
(F475.0
I20
tp4085
a(F2187.0
I75
tp4086
a(F4279.0
I96
tp4087
a(F4315.0
I81
tp4088
a(F5695.0
I27
tp4089
a(F5736.0
I103
tp4090
aa(lp4091
(F802.0
I22
tp4092
a(F833.0
I21
tp4093
a(F928.0
I19
tp4094
a(F2134.0
I55
tp4095
a(F2864.0
I85
tp4096
a(F3035.0
I55
tp4097
aa(lp4098
(F267.0
I54
tp4099
a(F417.0
I61
tp4100
a(F3609.0
I98
tp4101
a(F4531.0
I89
tp4102
a(F4750.0
I102
tp4103
a(F4764.0
I136
tp4104
aa(lp4105
(F526.0
I27
tp4106
a(F623.0
I82
tp4107
a(F688.0
I86
tp4108
a(F822.0
I61
tp4109
a(F998.0
I92
tp4110
a(F1334.0
I27
tp4111
aa(lp4112
(F2183.0
I36
tp4113
a(F2193.0
I102
tp4114
a(F2258.0
I126
tp4115
a(F2279.0
I105
tp4116
a(F5834.0
I18
tp4117
a(F6196.0
I68
tp4118
aa(lp4119
(F108.0
I135
tp4120
a(F1273.0
I84
tp4121
a(F3098.0
I90
tp4122
a(F3520.0
I140
tp4123
a(F4411.0
I100
tp4124
a(F5383.0
I101
tp4125
aa(lp4126
(F2675.0
I75
tp4127
a(F2901.0
I72
tp4128
a(F3116.0
I128
tp4129
a(F3357.0
I56
tp4130
a(F3564.0
I122
tp4131
a(F3914.0
I128
tp4132
aa(lp4133
(F2188.0
I140
tp4134
a(F2350.0
I136
tp4135
a(F2508.0
I138
tp4136
a(F2990.0
I140
tp4137
a(F3826.0
I140
tp4138
a(F4034.0
I133
tp4139
aa(lp4140
(F147.0
I87
tp4141
a(F328.0
I61
tp4142
a(F1086.0
I51
tp4143
a(F1168.0
I97
tp4144
a(F1441.0
I140
tp4145
a(F1683.0
I75
tp4146
aa(lp4147
(F2150.0
I90
tp4148
a(F2173.0
I62
tp4149
a(F3115.0
I43
tp4150
a(F3523.0
I65
tp4151
a(F3756.0
I56
tp4152
a(F4088.0
I56
tp4153
aa(lp4154
(F1447.0
I88
tp4155
a(F1648.0
I79
tp4156
a(F2155.0
I42
tp4157
a(F3115.0
I76
tp4158
a(F3606.0
I83
tp4159
a(F3698.0
I140
tp4160
aa(lp4161
(F239.0
I89
tp4162
a(F872.0
I69
tp4163
a(F1609.0
I60
tp4164
a(F1744.0
I78
tp4165
a(F1990.0
I50
tp4166
a(F3682.0
I74
tp4167
aa(lp4168
(F96.0
I113
tp4169
a(F119.0
I88
tp4170
a(F157.0
I94
tp4171
a(F448.0
I38
tp4172
a(F877.0
I58
tp4173
a(F1829.0
I28
tp4174
aa(lp4175
(F2254.0
I10
tp4176
a(F2445.0
I39
tp4177
a(F3194.0
I78
tp4178
a(F3403.0
I63
tp4179
a(F3439.0
I35
tp4180
a(F3813.0
I78
tp4181
aa(lp4182
(F655.0
I86
tp4183
a(F3659.0
I38
tp4184
a(F3698.0
I112
tp4185
a(F4365.0
I49
tp4186
a(F4381.0
I29
tp4187
a(F4571.0
I109
tp4188
aa(lp4189
(F522.0
I140
tp4190
a(F2110.0
I48
tp4191
a(F2329.0
I43
tp4192
a(F3471.0
I129
tp4193
a(F5516.0
I47
tp4194
a(F6059.0
I139
tp4195
aa(lp4196
(F1625.0
I106
tp4197
a(F1787.0
I97
tp4198
a(F2660.0
I135
tp4199
a(F2767.0
I129
tp4200
a(F2837.0
I80
tp4201
a(F4648.0
I126
tp4202
aa(lp4203
(F5539.0
I92
tp4204
a(F5550.0
I29
tp4205
a(F5619.0
I102
tp4206
a(F5707.0
I54
tp4207
a(F5752.0
I41
tp4208
a(F6078.0
I103
tp4209
aa(lp4210
(F451.0
I63
tp4211
a(F535.0
I54
tp4212
a(F743.0
I56
tp4213
a(F931.0
I67
tp4214
a(F3188.0
I22
tp4215
a(F4263.0
I34
tp4216
aa(lp4217
(F955.0
I77
tp4218
a(F1206.0
I102
tp4219
a(F1230.0
I30
tp4220
a(F2038.0
I120
tp4221
a(F3851.0
I24
tp4222
a(F4063.0
I20
tp4223
aa(lp4224
(F570.0
I126
tp4225
a(F608.0
I90
tp4226
a(F672.0
I76
tp4227
a(F1036.0
I86
tp4228
a(F1075.0
I105
tp4229
a(F1132.0
I124
tp4230
aa(lp4231
(F830.0
I15
tp4232
a(F2421.0
I78
tp4233
a(F2808.0
I34
tp4234
a(F3149.0
I45
tp4235
a(F3637.0
I55
tp4236
a(F3677.0
I31
tp4237
aa(lp4238
(F1489.0
I125
tp4239
a(F1529.0
I92
tp4240
a(F1598.0
I38
tp4241
a(F1763.0
I47
tp4242
a(F1851.0
I43
tp4243
aa(lp4244
(F136.0
I67
tp4245
a(F529.0
I77
tp4246
a(F961.0
I89
tp4247
a(F1496.0
I47
tp4248
a(F1542.0
I70
tp4249
aa(lp4250
(F372.0
I76
tp4251
a(F768.0
I53
tp4252
a(F2998.0
I134
tp4253
a(F3842.0
I97
tp4254
a(F4039.0
I138
tp4255
aa(lp4256
(F361.0
I68
tp4257
a(F413.0
I106
tp4258
a(F454.0
I43
tp4259
a(F481.0
I110
tp4260
a(F866.0
I104
tp4261
aa(lp4262
(F1664.0
I27
tp4263
a(F3236.0
I72
tp4264
a(F3988.0
I55
tp4265
a(F4162.0
I103
tp4266
a(F5920.0
I48
tp4267
aa(lp4268
(F1172.0
I14
tp4269
a(F1296.0
I76
tp4270
a(F1435.0
I70
tp4271
a(F2200.0
I17
tp4272
a(F4876.0
I25
tp4273
aa(lp4274
(F5532.0
I53
tp4275
a(F5594.0
I49
tp4276
a(F5678.0
I93
tp4277
a(F5741.0
I48
tp4278
a(F5824.0
I84
tp4279
aa(lp4280
(F4961.0
I101
tp4281
a(F5219.0
I39
tp4282
a(F5331.0
I60
tp4283
a(F5969.0
I90
tp4284
a(F6061.0
I41
tp4285
aa(lp4286
(F625.0
I52
tp4287
a(F2864.0
I35
tp4288
a(F4026.0
I47
tp4289
a(F4954.0
I9
tp4290
a(F6077.0
I25
tp4291
aa(lp4292
(F3302.0
I133
tp4293
a(F3639.0
I62
tp4294
a(F5616.0
I59
tp4295
a(F5759.0
I57
tp4296
a(F5827.0
I140
tp4297
aa(lp4298
(F1091.0
I34
tp4299
a(F1207.0
I42
tp4300
a(F1414.0
I140
tp4301
a(F1989.0
I132
tp4302
a(F2494.0
I48
tp4303
aa(lp4304
(F3141.0
I72
tp4305
a(F3373.0
I48
tp4306
a(F3603.0
I50
tp4307
a(F4728.0
I58
tp4308
a(F6153.0
I72
tp4309
aa(lp4310
(F2349.0
I38
tp4311
a(F3398.0
I26
tp4312
a(F3420.0
I18
tp4313
a(F3438.0
I140
tp4314
a(F6072.0
I26
tp4315
aa(lp4316
(F496.0
I140
tp4317
a(F508.0
I71
tp4318
a(F522.0
I97
tp4319
a(F3349.0
I33
tp4320
a(F3412.0
I74
tp4321
aa(lp4322
(F1614.0
I14
tp4323
a(F2197.0
I34
tp4324
a(F2233.0
I26
tp4325
a(F2509.0
I48
tp4326
a(F4570.0
I59
tp4327
aa(lp4328
(F418.0
I89
tp4329
a(F2358.0
I92
tp4330
a(F2593.0
I98
tp4331
a(F2762.0
I140
tp4332
a(F4528.0
I95
tp4333
aa(lp4334
(F5211.0
I125
tp4335
a(F5325.0
I111
tp4336
a(F5506.0
I49
tp4337
a(F6072.0
I103
tp4338
a(F6186.0
I103
tp4339
aa(lp4340
(F2839.0
I112
tp4341
a(F5027.0
I73
tp4342
a(F5346.0
I112
tp4343
a(F5790.0
I55
tp4344
a(F5868.0
I40
tp4345
aa(lp4346
(F5202.0
I116
tp4347
a(F5310.0
I96
tp4348
a(F5353.0
I133
tp4349
a(F5379.0
I74
tp4350
a(F5403.0
I16
tp4351
aa(lp4352
(F1514.0
I24
tp4353
a(F1573.0
I140
tp4354
a(F1630.0
I77
tp4355
a(F1791.0
I38
tp4356
a(F2358.0
I78
tp4357
aa(lp4358
(F998.0
I132
tp4359
a(F1046.0
I80
tp4360
a(F4944.0
I140
tp4361
a(F4970.0
I43
tp4362
a(F5957.0
I128
tp4363
aa(lp4364
(F4513.0
I38
tp4365
a(F4540.0
I23
tp4366
a(F4662.0
I79
tp4367
a(F5040.0
I34
tp4368
a(F5062.0
I72
tp4369
aa(lp4370
(F2845.0
I81
tp4371
a(F3117.0
I106
tp4372
a(F3156.0
I91
tp4373
a(F3293.0
I133
tp4374
a(F4403.0
I129
tp4375
aa(lp4376
(F2649.0
I74
tp4377
a(F2677.0
I50
tp4378
a(F2821.0
I140
tp4379
a(F2826.0
I76
tp4380
a(F2884.0
I88
tp4381
aa(lp4382
(F1812.0
I104
tp4383
a(F1922.0
I124
tp4384
a(F3554.0
I91
tp4385
a(F3573.0
I92
tp4386
a(F6035.0
I72
tp4387
aa(lp4388
(F200.0
I49
tp4389
a(F319.0
I70
tp4390
a(F1038.0
I35
tp4391
a(F3229.0
I41
tp4392
a(F3672.0
I139
tp4393
aa(lp4394
(F742.0
I140
tp4395
a(F933.0
I90
tp4396
a(F1296.0
I140
tp4397
a(F1607.0
I107
tp4398
a(F2008.0
I106
tp4399
aa(lp4400
(F0.0
I23
tp4401
a(F65.0
I77
tp4402
a(F95.0
I119
tp4403
a(F130.0
I85
tp4404
a(F912.0
I78
tp4405
aa(lp4406
(F2231.0
I48
tp4407
a(F2266.0
I26
tp4408
a(F2536.0
I79
tp4409
a(F2663.0
I61
tp4410
a(F4836.0
I140
tp4411
aa(lp4412
(F611.0
I70
tp4413
a(F771.0
I35
tp4414
a(F828.0
I134
tp4415
a(F1152.0
I52
tp4416
a(F1539.0
I76
tp4417
aa(lp4418
(F1576.0
I96
tp4419
a(F1730.0
I104
tp4420
a(F3408.0
I136
tp4421
a(F3411.0
I140
tp4422
a(F3444.0
I63
tp4423
aa(lp4424
(F84.0
I46
tp4425
a(F188.0
I80
tp4426
a(F621.0
I53
tp4427
a(F1636.0
I88
tp4428
a(F2041.0
I49
tp4429
aa(lp4430
(F1371.0
I30
tp4431
a(F1472.0
I60
tp4432
a(F2074.0
I140
tp4433
a(F2571.0
I74
tp4434
a(F2937.0
I56
tp4435
aa(lp4436
(F5049.0
I61
tp4437
a(F5181.0
I112
tp4438
a(F5245.0
I115
tp4439
a(F5488.0
I38
tp4440
a(F5535.0
I38
tp4441
aa(lp4442
(F298.0
I71
tp4443
a(F460.0
I99
tp4444
a(F878.0
I48
tp4445
a(F3504.0
I109
tp4446
a(F5795.0
I24
tp4447
aa(lp4448
(F954.0
I134
tp4449
a(F2590.0
I52
tp4450
a(F2731.0
I113
tp4451
a(F2892.0
I34
tp4452
a(F3024.0
I22
tp4453
aa(lp4454
(F2004.0
I35
tp4455
a(F2175.0
I83
tp4456
a(F2951.0
I45
tp4457
a(F3252.0
I46
tp4458
a(F3701.0
I23
tp4459
aa(lp4460
(F548.0
I94
tp4461
a(F1185.0
I29
tp4462
a(F3259.0
I111
tp4463
a(F5213.0
I40
tp4464
a(F5515.0
I69
tp4465
aa(lp4466
(F1339.0
I19
tp4467
a(F5506.0
I43
tp4468
a(F5522.0
I68
tp4469
a(F6083.0
I75
tp4470
a(F6204.0
I104
tp4471
aa(lp4472
(F321.0
I33
tp4473
a(F383.0
I83
tp4474
a(F538.0
I67
tp4475
a(F2833.0
I140
tp4476
aa(lp4477
(F92.0
I21
tp4478
a(F145.0
I44
tp4479
a(F183.0
I30
tp4480
a(F276.0
I13
tp4481
aa(lp4482
(F25.0
I140
tp4483
a(F32.0
I120
tp4484
a(F497.0
I140
tp4485
a(F3574.0
I82
tp4486
aa(lp4487
(F809.0
I137
tp4488
a(F4340.0
I132
tp4489
a(F4341.0
I136
tp4490
a(F4416.0
I135
tp4491
aa(lp4492
(F578.0
I44
tp4493
a(F1000.0
I44
tp4494
a(F1029.0
I47
tp4495
a(F1090.0
I37
tp4496
aa(lp4497
(F4699.0
I50
tp4498
a(F6005.0
I101
tp4499
a(F6123.0
I116
tp4500
a(F6152.0
I9
tp4501
aa(lp4502
(F38.0
I120
tp4503
a(F5609.0
I48
tp4504
a(F5617.0
I18
tp4505
a(F5679.0
I45
tp4506
aa(lp4507
(F4669.0
I127
tp4508
a(F4740.0
I136
tp4509
a(F5096.0
I99
tp4510
a(F5374.0
I62
tp4511
aa(lp4512
(F3409.0
I96
tp4513
a(F3598.0
I83
tp4514
a(F3757.0
I62
tp4515
a(F3830.0
I107
tp4516
aa(lp4517
(F4484.0
I140
tp4518
a(F4949.0
I102
tp4519
a(F5312.0
I30
tp4520
a(F5391.0
I140
tp4521
aa(lp4522
(F218.0
I20
tp4523
a(F1181.0
I37
tp4524
a(F1286.0
I41
tp4525
a(F1554.0
I111
tp4526
aa(lp4527
(F4128.0
I73
tp4528
a(F4872.0
I127
tp4529
a(F4972.0
I134
tp4530
a(F5106.0
I104
tp4531
aa(lp4532
(F2712.0
I41
tp4533
a(F2885.0
I50
tp4534
a(F2947.0
I74
tp4535
a(F3083.0
I33
tp4536
aa(lp4537
(F1084.0
I46
tp4538
a(F3816.0
I25
tp4539
a(F3877.0
I32
tp4540
a(F4048.0
I35
tp4541
aa(lp4542
(F1364.0
I127
tp4543
a(F1660.0
I139
tp4544
a(F2068.0
I105
tp4545
a(F6101.0
I92
tp4546
aa(lp4547
(F2314.0
I24
tp4548
a(F3624.0
I43
tp4549
a(F3672.0
I64
tp4550
a(F5339.0
I36
tp4551
aa(lp4552
(F4102.0
I63
tp4553
a(F4358.0
I93
tp4554
a(F4381.0
I95
tp4555
a(F4465.0
I112
tp4556
aa(lp4557
(F2248.0
I130
tp4558
a(F2463.0
I98
tp4559
a(F2523.0
I134
tp4560
a(F2561.0
I49
tp4561
aa(lp4562
(F2051.0
I73
tp4563
a(F2166.0
I71
tp4564
a(F2308.0
I30
tp4565
a(F2500.0
I30
tp4566
aa(lp4567
(F2612.0
I45
tp4568
a(F3072.0
I34
tp4569
a(F3556.0
I79
tp4570
a(F3566.0
I140
tp4571
aa(lp4572
(F249.0
I65
tp4573
a(F374.0
I57
tp4574
a(F4924.0
I60
tp4575
a(F5012.0
I26
tp4576
aa(lp4577
(F2741.0
I104
tp4578
a(F2753.0
I135
tp4579
a(F5169.0
I90
tp4580
a(F6107.0
I99
tp4581
aa(lp4582
(F1084.0
I27
tp4583
a(F1658.0
I59
tp4584
a(F1698.0
I123
tp4585
a(F3381.0
I35
tp4586
aa(lp4587
(F1299.0
I55
tp4588
a(F5979.0
I76
tp4589
a(F5985.0
I29
tp4590
a(F6049.0
I52
tp4591
aa(lp4592
(F3796.0
I128
tp4593
a(F4025.0
I133
tp4594
a(F4426.0
I140
tp4595
a(F4626.0
I113
tp4596
aa(lp4597
(F5714.0
I100
tp4598
a(F5748.0
I133
tp4599
a(F5755.0
I82
tp4600
a(F6196.0
I97
tp4601
aa(lp4602
(F4271.0
I91
tp4603
a(F4354.0
I113
tp4604
a(F4368.0
I88
tp4605
a(F4600.0
I140
tp4606
aa(lp4607
(F985.0
I60
tp4608
a(F1019.0
I73
tp4609
a(F1230.0
I58
tp4610
a(F1537.0
I140
tp4611
aa(lp4612
(F380.0
I113
tp4613
a(F1026.0
I134
tp4614
a(F2401.0
I50
tp4615
a(F3971.0
I116
tp4616
aa(lp4617
(F697.0
I140
tp4618
a(F1072.0
I41
tp4619
a(F1277.0
I36
tp4620
a(F2344.0
I47
tp4621
aa(lp4622
(F1395.0
I78
tp4623
a(F1573.0
I21
tp4624
a(F1636.0
I58
tp4625
a(F3356.0
I31
tp4626
aa(lp4627
(F2694.0
I38
tp4628
a(F3501.0
I62
tp4629
a(F3543.0
I44
tp4630
a(F5869.0
I49
tp4631
aa(lp4632
(F4753.0
I92
tp4633
a(F5022.0
I39
tp4634
a(F5693.0
I16
tp4635
a(F6213.0
I36
tp4636
aa(lp4637
(F1424.0
I81
tp4638
a(F1687.0
I89
tp4639
a(F1724.0
I86
tp4640
a(F4369.0
I85
tp4641
aa(lp4642
(F511.0
I26
tp4643
a(F571.0
I88
tp4644
a(F606.0
I140
tp4645
a(F803.0
I35
tp4646
aa(lp4647
(F81.0
I20
tp4648
a(F270.0
I40
tp4649
a(F885.0
I28
tp4650
a(F2462.0
I40
tp4651
aa(lp4652
(F1253.0
I89
tp4653
a(F1955.0
I30
tp4654
a(F2299.0
I106
tp4655
a(F2320.0
I100
tp4656
aa(lp4657
(F3032.0
I33
tp4658
a(F3200.0
I63
tp4659
a(F4021.0
I140
tp4660
a(F4063.0
I32
tp4661
aa(lp4662
(F3282.0
I31
tp4663
a(F3477.0
I49
tp4664
a(F4789.0
I37
tp4665
a(F5097.0
I54
tp4666
aa(lp4667
(F1866.0
I86
tp4668
a(F1869.0
I46
tp4669
a(F5028.0
I53
tp4670
a(F5187.0
I104
tp4671
aa(lp4672
(F2922.0
I20
tp4673
a(F4881.0
I45
tp4674
a(F5041.0
I48
tp4675
a(F5162.0
I17
tp4676
aa(lp4677
(F3251.0
I35
tp4678
a(F3437.0
I37
tp4679
a(F4244.0
I53
tp4680
a(F6084.0
I49
tp4681
aa(lp4682
(F5295.0
I14
tp4683
a(F5319.0
I19
tp4684
a(F5991.0
I29
tp4685
a(F6169.0
I73
tp4686
aa(lp4687
(F2203.0
I134
tp4688
a(F2457.0
I65
tp4689
a(F2584.0
I50
tp4690
a(F2716.0
I71
tp4691
aa(lp4692
(F543.0
I54
tp4693
a(F1180.0
I67
tp4694
a(F4742.0
I69
tp4695
a(F5129.0
I73
tp4696
aa(lp4697
(F1096.0
I32
tp4698
a(F1142.0
I16
tp4699
a(F2641.0
I55
tp4700
a(F2690.0
I31
tp4701
aa(lp4702
(F103.0
I56
tp4703
a(F1143.0
I31
tp4704
a(F1335.0
I139
tp4705
a(F1429.0
I136
tp4706
aa(lp4707
(F252.0
I134
tp4708
a(F820.0
I133
tp4709
a(F1212.0
I140
tp4710
a(F2647.0
I140
tp4711
aa(lp4712
(F3356.0
I77
tp4713
a(F3430.0
I89
tp4714
a(F5452.0
I76
tp4715
a(F5884.0
I86
tp4716
aa(lp4717
(F411.0
I104
tp4718
a(F537.0
I84
tp4719
a(F639.0
I98
tp4720
a(F3231.0
I137
tp4721
aa(lp4722
(F2103.0
I91
tp4723
a(F2204.0
I140
tp4724
a(F2258.0
I74
tp4725
a(F2306.0
I91
tp4726
aa(lp4727
(F3039.0
I74
tp4728
a(F3522.0
I30
tp4729
a(F4013.0
I37
tp4730
a(F4577.0
I20
tp4731
aa(lp4732
(F2302.0
I29
tp4733
a(F2414.0
I42
tp4734
a(F5452.0
I41
tp4735
a(F5857.0
I40
tp4736
aa(lp4737
(F5954.0
I85
tp4738
a(F6012.0
I64
tp4739
a(F6022.0
I125
tp4740
a(F6205.0
I35
tp4741
aa(lp4742
(F1466.0
I140
tp4743
a(F1668.0
I130
tp4744
a(F1855.0
I135
tp4745
a(F5125.0
I102
tp4746
aa(lp4747
(F5453.0
I32
tp4748
a(F6016.0
I54
tp4749
a(F6071.0
I52
tp4750
a(F6157.0
I54
tp4751
aa(lp4752
(F1847.0
I36
tp4753
a(F3527.0
I60
tp4754
a(F4384.0
I131
tp4755
a(F4474.0
I42
tp4756
aa(lp4757
(F1955.0
I63
tp4758
a(F1971.0
I40
tp4759
a(F2105.0
I83
tp4760
a(F2775.0
I30
tp4761
aa(lp4762
(F646.0
I45
tp4763
a(F686.0
I30
tp4764
a(F1781.0
I57
tp4765
a(F1880.0
I66
tp4766
aa(lp4767
(F3751.0
I140
tp4768
a(F3786.0
I49
tp4769
a(F3898.0
I80
tp4770
a(F4228.0
I140
tp4771
aa(lp4772
(F5162.0
I63
tp4773
a(F5438.0
I60
tp4774
a(F5925.0
I19
tp4775
a(F6049.0
I121
tp4776
aa(lp4777
(F345.0
I22
tp4778
a(F454.0
I18
tp4779
a(F478.0
I35
tp4780
a(F1070.0
I16
tp4781
aa(lp4782
(F5283.0
I137
tp4783
a(F5429.0
I140
tp4784
a(F5721.0
I138
tp4785
a(F6021.0
I101
tp4786
aa(lp4787
(F2632.0
I80
tp4788
a(F3609.0
I74
tp4789
a(F3851.0
I71
tp4790
a(F4492.0
I80
tp4791
aa(lp4792
(F914.0
I99
tp4793
a(F969.0
I140
tp4794
a(F1031.0
I93
tp4795
a(F3692.0
I90
tp4796
aa(lp4797
(F41.0
I66
tp4798
a(F270.0
I107
tp4799
a(F3607.0
I67
tp4800
a(F3761.0
I68
tp4801
aa(lp4802
(F5246.0
I7
tp4803
a(F5365.0
I38
tp4804
a(F5483.0
I53
tp4805
aa(lp4806
(F904.0
I134
tp4807
a(F1907.0
I118
tp4808
a(F4030.0
I59
tp4809
aa(lp4810
(F1342.0
I26
tp4811
a(F1752.0
I31
tp4812
a(F2128.0
I41
tp4813
aa(lp4814
(F1058.0
I91
tp4815
a(F1227.0
I91
tp4816
a(F1571.0
I77
tp4817
aa(lp4818
(F4818.0
I118
tp4819
a(F4888.0
I140
tp4820
a(F4916.0
I80
tp4821
aa(lp4822
(F1320.0
I30
tp4823
a(F1335.0
I46
tp4824
a(F1375.0
I24
tp4825
aa(lp4826
(F4361.0
I65
tp4827
a(F4423.0
I31
tp4828
a(F4560.0
I25
tp4829
aa(lp4830
(F1994.0
I25
tp4831
a(F2256.0
I49
tp4832
a(F2585.0
I38
tp4833
aa(lp4834
(F2462.0
I6
tp4835
a(F2746.0
I3
tp4836
a(F2793.0
I140
tp4837
aa(lp4838
(F307.0
I43
tp4839
a(F425.0
I61
tp4840
a(F464.0
I86
tp4841
aa(lp4842
(F3944.0
I1
tp4843
a(F4038.0
I104
tp4844
a(F4328.0
I77
tp4845
aa(lp4846
(F1781.0
I26
tp4847
a(F2172.0
I140
tp4848
a(F2537.0
I58
tp4849
aa(lp4850
(F114.0
I21
tp4851
a(F462.0
I46
tp4852
a(F646.0
I22
tp4853
aa(lp4854
(F1526.0
I122
tp4855
a(F2523.0
I93
tp4856
a(F3130.0
I82
tp4857
aa(lp4858
(F1693.0
I81
tp4859
a(F2504.0
I72
tp4860
a(F3399.0
I22
tp4861
aa(lp4862
(F288.0
I51
tp4863
a(F1263.0
I67
tp4864
a(F1799.0
I119
tp4865
aa(lp4866
(F394.0
I82
tp4867
a(F729.0
I124
tp4868
a(F1633.0
I86
tp4869
aa(lp4870
(F1707.0
I51
tp4871
a(F3207.0
I8
tp4872
a(F4000.0
I20
tp4873
aa(lp4874
(F2016.0
I82
tp4875
a(F2132.0
I102
tp4876
a(F3870.0
I101
tp4877
aa(lp4878
(F273.0
I139
tp4879
a(F1938.0
I10
tp4880
a(F2509.0
I139
tp4881
aa(lp4882
(F1201.0
I35
tp4883
a(F4210.0
I91
tp4884
a(F4878.0
I87
tp4885
aa(lp4886
(F1667.0
I103
tp4887
a(F2852.0
I6
tp4888
a(F3855.0
I18
tp4889
aa(lp4890
(F998.0
I65
tp4891
a(F1844.0
I76
tp4892
a(F1987.0
I87
tp4893
aa(lp4894
(F5066.0
I50
tp4895
a(F5139.0
I98
tp4896
a(F5256.0
I100
tp4897
aa(lp4898
(F1678.0
I129
tp4899
a(F2021.0
I96
tp4900
a(F2362.0
I72
tp4901
aa(lp4902
(F2379.0
I18
tp4903
a(F2595.0
I59
tp4904
a(F3034.0
I25
tp4905
aa(lp4906
(F2684.0
I122
tp4907
a(F3017.0
I44
tp4908
a(F3137.0
I74
tp4909
aa(lp4910
(F47.0
I102
tp4911
a(F1714.0
I66
tp4912
a(F1941.0
I127
tp4913
aa(lp4914
(F1743.0
I57
tp4915
a(F2768.0
I97
tp4916
a(F2784.0
I82
tp4917
aa(lp4918
(F5705.0
I132
tp4919
a(F5837.0
I53
tp4920
a(F6150.0
I87
tp4921
aa(lp4922
(F4354.0
I110
tp4923
a(F4363.0
I72
tp4924
a(F5512.0
I73
tp4925
aa(lp4926
(F1638.0
I129
tp4927
a(F4707.0
I75
tp4928
a(F4738.0
I90
tp4929
aa(lp4930
(F158.0
I140
tp4931
a(F923.0
I60
tp4932
a(F996.0
I140
tp4933
aa(lp4934
(F4356.0
I9
tp4935
a(F4565.0
I19
tp4936
a(F4940.0
I78
tp4937
aa(lp4938
(F2298.0
I45
tp4939
a(F2950.0
I27
tp4940
a(F3460.0
I10
tp4941
aa(lp4942
(F3129.0
I140
tp4943
a(F4720.0
I69
tp4944
a(F5300.0
I140
tp4945
aa(lp4946
(F5543.0
I116
tp4947
a(F5579.0
I47
tp4948
a(F6191.0
I126
tp4949
aa(lp4950
(F60.0
I137
tp4951
a(F303.0
I139
tp4952
a(F802.0
I107
tp4953
aa(lp4954
(F2298.0
I137
tp4955
a(F2396.0
I60
tp4956
a(F3113.0
I38
tp4957
aa(lp4958
(F1156.0
I45
tp4959
a(F1425.0
I70
tp4960
a(F5321.0
I83
tp4961
aa(lp4962
(F3093.0
I140
tp4963
a(F3127.0
I104
tp4964
a(F3280.0
I78
tp4965
aa(lp4966
(F614.0
I75
tp4967
a(F733.0
I128
tp4968
a(F871.0
I62
tp4969
aa(lp4970
(F1761.0
I65
tp4971
a(F1762.0
I140
tp4972
a(F2002.0
I138
tp4973
aa(lp4974
(F1035.0
I134
tp4975
a(F1307.0
I73
tp4976
a(F1410.0
I139
tp4977
aa(lp4978
(F1761.0
I99
tp4979
a(F2485.0
I44
tp4980
a(F2534.0
I83
tp4981
aa(lp4982
(F1177.0
I7
tp4983
a(F1249.0
I37
tp4984
a(F1536.0
I95
tp4985
aa(lp4986
(F5839.0
I44
tp4987
a(F5932.0
I140
tp4988
a(F6010.0
I64
tp4989
aa(lp4990
(F5219.0
I46
tp4991
a(F5579.0
I27
tp4992
a(F6009.0
I41
tp4993
aa(lp4994
(F453.0
I41
tp4995
a(F546.0
I36
tp4996
a(F731.0
I126
tp4997
aa(lp4998
(F206.0
I69
tp4999
a(F231.0
I28
tp5000
a(F4783.0
I99
tp5001
aa(lp5002
(F2048.0
I36
tp5003
a(F2988.0
I45
tp5004
a(F3019.0
I121
tp5005
aa(lp5006
(F3251.0
I116
tp5007
a(F3479.0
I78
tp5008
a(F3631.0
I109
tp5009
aa(lp5010
(F3289.0
I50
tp5011
a(F3956.0
I58
tp5012
a(F4978.0
I27
tp5013
aa(lp5014
(F2421.0
I121
tp5015
a(F2482.0
I122
tp5016
a(F3878.0
I30
tp5017
aa(lp5018
(F187.0
I36
tp5019
a(F718.0
I58
tp5020
a(F4127.0
I83
tp5021
aa(lp5022
(F5023.0
I86
tp5023
a(F5280.0
I131
tp5024
a(F5604.0
I102
tp5025
aa(lp5026
(F446.0
I57
tp5027
a(F2132.0
I101
tp5028
a(F5662.0
I113
tp5029
aa(lp5030
(F1517.0
I51
tp5031
a(F5480.0
I128
tp5032
a(F5523.0
I114
tp5033
aa(lp5034
(F2488.0
I54
tp5035
a(F2541.0
I100
tp5036
a(F4474.0
I140
tp5037
aa(lp5038
(F1274.0
I86
tp5039
a(F1955.0
I118
tp5040
a(F2065.0
I46
tp5041
aa(lp5042
(F3388.0
I77
tp5043
a(F3875.0
I84
tp5044
a(F4257.0
I32
tp5045
aa(lp5046
(F4026.0
I140
tp5047
a(F4134.0
I140
tp5048
a(F4152.0
I140
tp5049
aa(lp5050
(F612.0
I136
tp5051
a(F1713.0
I43
tp5052
a(F2821.0
I140
tp5053
aa(lp5054
(F926.0
I33
tp5055
a(F1502.0
I49
tp5056
a(F1748.0
I51
tp5057
aa(lp5058
(F459.0
I66
tp5059
a(F483.0
I24
tp5060
a(F1729.0
I86
tp5061
aa(lp5062
(F506.0
I77
tp5063
a(F674.0
I81
tp5064
a(F2493.0
I33
tp5065
aa(lp5066
(F594.0
I62
tp5067
a(F652.0
I92
tp5068
a(F657.0
I91
tp5069
aa(lp5070
(F148.0
I80
tp5071
a(F1928.0
I140
tp5072
a(F5211.0
I89
tp5073
aa(lp5074
(F3249.0
I156
tp5075
a(F4937.0
I27
tp5076
a(F5156.0
I111
tp5077
aa(lp5078
(F3621.0
I67
tp5079
a(F3630.0
I46
tp5080
a(F5266.0
I72
tp5081
aa(lp5082
(F3548.0
I57
tp5083
a(F4200.0
I111
tp5084
a(F4292.0
I62
tp5085
aa(lp5086
(F3955.0
I71
tp5087
a(F5813.0
I129
tp5088
a(F6127.0
I102
tp5089
aa(lp5090
(F2892.0
I57
tp5091
a(F3489.0
I62
tp5092
a(F3955.0
I57
tp5093
aa(lp5094
(F3227.0
I113
tp5095
a(F3267.0
I121
tp5096
a(F3524.0
I132
tp5097
aa(lp5098
(F400.0
I58
tp5099
a(F3788.0
I103
tp5100
a(F3935.0
I123
tp5101
aa(lp5102
(F1033.0
I69
tp5103
a(F1058.0
I108
tp5104
a(F2693.0
I74
tp5105
aa(lp5106
(F1877.0
I131
tp5107
a(F2855.0
I87
tp5108
a(F5072.0
I55
tp5109
aa(lp5110
(F1972.0
I14
tp5111
a(F2872.0
I73
tp5112
a(F3106.0
I39
tp5113
aa(lp5114
(F379.0
I72
tp5115
a(F3606.0
I101
tp5116
a(F3657.0
I125
tp5117
aa(lp5118
(F1082.0
I133
tp5119
a(F4560.0
I119
tp5120
a(F6139.0
I96
tp5121
aa(lp5122
(F5940.0
I110
tp5123
a(F6021.0
I58
tp5124
a(F6238.0
I46
tp5125
aa(lp5126
(F5238.0
I59
tp5127
a(F5315.0
I125
tp5128
a(F5342.0
I108
tp5129
aa(lp5130
(F20.0
I123
tp5131
a(F995.0
I107
tp5132
a(F5789.0
I110
tp5133
aa(lp5134
(F3009.0
I86
tp5135
a(F3321.0
I99
tp5136
a(F3375.0
I127
tp5137
aa(lp5138
(F224.0
I125
tp5139
a(F1165.0
I138
tp5140
a(F1698.0
I125
tp5141
aa(lp5142
(F681.0
I72
tp5143
a(F4615.0
I138
tp5144
a(F5145.0
I45
tp5145
aa(lp5146
(F4535.0
I57
tp5147
a(F4580.0
I124
tp5148
a(F6229.0
I53
tp5149
aa(lp5150
(F879.0
I87
tp5151
a(F4354.0
I140
tp5152
a(F5976.0
I63
tp5153
aa(lp5154
(F3655.0
I140
tp5155
a(F5704.0
I91
tp5156
a(F5815.0
I52
tp5157
aa(lp5158
(F100.0
I42
tp5159
a(F140.0
I140
tp5160
a(F1247.0
I106
tp5161
aa(lp5162
(F2220.0
I21
tp5163
a(F2430.0
I34
tp5164
a(F2537.0
I33
tp5165
aa(lp5166
(F3866.0
I132
tp5167
a(F4244.0
I144
tp5168
a(F4268.0
I135
tp5169
aa(lp5170
(F538.0
I86
tp5171
a(F603.0
I86
tp5172
a(F1118.0
I125
tp5173
aa(lp5174
(F483.0
I72
tp5175
a(F1005.0
I72
tp5176
aa(lp5177
(F3146.0
I80
tp5178
a(F3254.0
I82
tp5179
aa(lp5180
(F1158.0
I74
tp5181
a(F4682.0
I67
tp5182
aa(lp5183
(F1116.0
I99
tp5184
a(F2801.0
I96
tp5185
aa(lp5186
(F3776.0
I96
tp5187
a(F3817.0
I111
tp5188
aa(lp5189
(F2888.0
I140
tp5190
a(F3318.0
I59
tp5191
aa(lp5192
(F1126.0
I140
tp5193
a(F1166.0
I140
tp5194
aa(lp5195
(F2562.0
I17
tp5196
a(F2582.0
I30
tp5197
aa(lp5198
(F2573.0
I120
tp5199
a(F2594.0
I121
tp5200
aa(lp5201
(F4589.0
I57
tp5202
a(F4627.0
I68
tp5203
aa(lp5204
(F1274.0
I88
tp5205
a(F1395.0
I85
tp5206
aa(lp5207
(F5002.0
I99
tp5208
a(F5074.0
I89
tp5209
aa(lp5210
(F245.0
I47
tp5211
a(F298.0
I91
tp5212
aa(lp5213
(F3340.0
I59
tp5214
a(F4661.0
I37
tp5215
aa(lp5216
(F484.0
I32
tp5217
a(F624.0
I49
tp5218
aa(lp5219
(F503.0
I27
tp5220
a(F512.0
I29
tp5221
aa(lp5222
(F2091.0
I62
tp5223
a(F2878.0
I100
tp5224
aa(lp5225
(F5094.0
I53
tp5226
a(F5163.0
I114
tp5227
aa(lp5228
(F414.0
I40
tp5229
a(F4288.0
I114
tp5230
aa(lp5231
(F3285.0
I66
tp5232
a(F4612.0
I70
tp5233
aa(lp5234
(F2228.0
I30
tp5235
a(F2971.0
I51
tp5236
aa(lp5237
(F3828.0
I71
tp5238
a(F3866.0
I91
tp5239
aa(lp5240
(F45.0
I40
tp5241
a(F5961.0
I32
tp5242
aa(lp5243
(F3332.0
I81
tp5244
a(F3381.0
I62
tp5245
aa(lp5246
(F525.0
I37
tp5247
a(F4179.0
I24
tp5248
aa(lp5249
(F2351.0
I51
tp5250
a(F6142.0
I60
tp5251
aa(lp5252
(F1690.0
I77
tp5253
a(F2653.0
I89
tp5254
aa(lp5255
(F844.0
I52
tp5256
a(F1290.0
I81
tp5257
aa(lp5258
(F2374.0
I140
tp5259
a(F2440.0
I123
tp5260
aa(lp5261
(F185.0
I123
tp5262
a(F5875.0
I96
tp5263
aa(lp5264
(F4024.0
I71
tp5265
a(F4099.0
I52
tp5266
aa(lp5267
(F900.0
I55
tp5268
a(F2691.0
I52
tp5269
aa(lp5270
(F1987.0
I127
tp5271
a(F5151.0
I17
tp5272
aa(lp5273
(F4974.0
I60
tp5274
a(F5447.0
I77
tp5275
aa(lp5276
(F4975.0
I105
tp5277
a(F5902.0
I123
tp5278
aa(lp5279
(F4375.0
I90
tp5280
a(F4414.0
I140
tp5281
aa(lp5282
(F5302.0
I84
tp5283
a(F5343.0
I92
tp5284
aa(lp5285
(F1051.0
I132
tp5286
a(F2238.0
I109
tp5287
aa(lp5288
(F4814.0
I20
tp5289
a(F4947.0
I24
tp5290
aa(lp5291
(F954.0
I98
tp5292
a(F2207.0
I77
tp5293
aa(lp5294
(F58.0
I56
tp5295
a(F1573.0
I114
tp5296
aa(lp5297
(F3892.0
I43
tp5298
a(F4743.0
I54
tp5299
aa(lp5300
(F2119.0
I71
tp5301
a(F4098.0
I45
tp5302
aa(lp5303
(F1193.0
I26
tp5304
a(F1961.0
I137
tp5305
aa(lp5306
(F5342.0
I17
tp5307
a(F5570.0
I140
tp5308
aa(lp5309
(F365.0
I43
tp5310
a(F629.0
I94
tp5311
aa(lp5312
(F188.0
I31
tp5313
a(F1750.0
I14
tp5314
aa(lp5315
(F5763.0
I140
tp5316
a(F5837.0
I140
tp5317
aa(lp5318
(F1105.0
I61
tp5319
a(F5751.0
I132
tp5320
aa(lp5321
(F643.0
I46
tp5322
a(F1553.0
I123
tp5323
aa(lp5324
(F323.0
I54
tp5325
a(F339.0
I112
tp5326
aa(lp5327
(F4660.0
I24
tp5328
a(F5590.0
I66
tp5329
aa(lp5330
(F2155.0
I65
tp5331
a(F2212.0
I30
tp5332
aa(lp5333
(F29.0
I52
tp5334
a(F6064.0
I76
tp5335
aa(lp5336
(F1907.0
I39
tp5337
a(F2477.0
I13
tp5338
aa(lp5339
(F2205.0
I80
tp5340
a(F3703.0
I98
tp5341
aa(lp5342
(F1112.0
I85
tp5343
a(F2414.0
I116
tp5344
aa(lp5345
(F3279.0
I1
tp5346
a(F3431.0
I32
tp5347
aa(lp5348
(F3931.0
I31
tp5349
a(F4544.0
I20
tp5350
aa(lp5351
(F4337.0
I95
tp5352
a(F5561.0
I120
tp5353
aa(lp5354
(F1568.0
I122
tp5355
a(F2719.0
I56
tp5356
aa(lp5357
(F1829.0
I117
tp5358
a(F2104.0
I12
tp5359
aa(lp5360
(F4026.0
I86
tp5361
a(F4129.0
I133
tp5362
aa(lp5363
(F1648.0
I140
tp5364
a(F6173.0
I115
tp5365
aa(lp5366
(F540.0
I47
tp5367
a(F617.0
I35
tp5368
aa(lp5369
(F5044.0
I17
tp5370
a(F6235.0
I22
tp5371
aa(lp5372
(F3411.0
I82
tp5373
a(F5012.0
I107
tp5374
aa(lp5375
(F5081.0
I140
tp5376
a(F5089.0
I140
tp5377
aa(lp5378
(F1064.0
I69
tp5379
a(F2181.0
I60
tp5380
aa(lp5381
(F5529.0
I78
tp5382
a(F6120.0
I76
tp5383
aa(lp5384
(F2810.0
I78
tp5385
a(F5871.0
I82
tp5386
aa(lp5387
(F3270.0
I139
tp5388
a(F5411.0
I36
tp5389
aa(lp5390
(F948.0
I134
tp5391
a(F1246.0
I49
tp5392
aa(lp5393
(F897.0
I77
tp5394
a(F1017.0
I31
tp5395
aa(lp5396
(F77.0
I139
tp5397
a(F162.0
I107
tp5398
aa(lp5399
(F4138.0
I134
tp5400
a(F5460.0
I140
tp5401
aa(lp5402
(F2390.0
I70
tp5403
a(F6225.0
I25
tp5404
aa(lp5405
(F188.0
I30
tp5406
a(F1805.0
I20
tp5407
aa(lp5408
(F1653.0
I58
tp5409
a(F3307.0
I45
tp5410
aa(lp5411
(F1538.0
I20
tp5412
a(F3321.0
I37
tp5413
aa(lp5414
(F831.0
I51
tp5415
a(F856.0
I69
tp5416
aa(lp5417
(F2664.0
I87
tp5418
a(F4483.0
I52
tp5419
aa(lp5420
(F1008.0
I20
tp5421
a(F1214.0
I20
tp5422
aa(lp5423
(F2798.0
I39
tp5424
a(F2846.0
I30
tp5425
aa(lp5426
(F327.0
I140
tp5427
a(F565.0
I33
tp5428
aa(lp5429
(F5881.0
I32
tp5430
a(F5925.0
I68
tp5431
aa(lp5432
(F2546.0
I67
tp5433
a(F3549.0
I108
tp5434
aa(lp5435
(F4657.0
I115
tp5436
a(F5259.0
I42
tp5437
aa(lp5438
(F4316.0
I62
tp5439
a(F5084.0
I25
tp5440
aa(lp5441
(F2000.0
I4
tp5442
a(F2228.0
I140
tp5443
aa(lp5444
(F32.0
I30
tp5445
a(F2418.0
I79
tp5446
aa(lp5447
(F1183.0
I82
tp5448
a(F1188.0
I112
tp5449
aa(lp5450
(F3619.0
I136
tp5451
a(F5846.0
I97
tp5452
aa(lp5453
(F2979.0
I41
tp5454
a(F3474.0
I42
tp5455
aa(lp5456
(F100.0
I48
tp5457
a(F271.0
I13
tp5458
aa(lp5459
(F4975.0
I78
tp5460
a(F5363.0
I69
tp5461
aa(lp5462
(F126.0
I61
tp5463
a(F224.0
I89
tp5464
aa(lp5465
(F786.0
I73
tp5466
a(F1990.0
I118
tp5467
aa(lp5468
(F6068.0
I61
tp5469
a(F6162.0
I121
tp5470
aa(lp5471
(F346.0
I89
tp5472
a(F360.0
I61
tp5473
aa(lp5474
(F2232.0
I80
tp5475
a(F4316.0
I133
tp5476
aa(lp5477
(F2165.0
I140
tp5478
a(F2175.0
I52
tp5479
aa(lp5480
(F3178.0
I53
tp5481
a(F3285.0
I65
tp5482
aa(lp5483
(F3100.0
I54
tp5484
a(F3218.0
I72
tp5485
aa(lp5486
(F5035.0
I102
tp5487
a(F5863.0
I109
tp5488
aa(lp5489
(F1040.0
I55
tp5490
a(F5137.0
I51
tp5491
aa(lp5492
(F4340.0
I39
tp5493
a(F4358.0
I84
tp5494
aa(lp5495
(F5608.0
I102
tp5496
a(F6063.0
I84
tp5497
aa(lp5498
(F3126.0
I43
tp5499
a(F5339.0
I140
tp5500
aa(lp5501
(F5192.0
I43
tp5502
a(F5315.0
I80
tp5503
aa(lp5504
(F1060.0
I136
tp5505
a(F1480.0
I42
tp5506
aa(lp5507
(F5146.0
I61
tp5508
a(F5478.0
I43
tp5509
aa(lp5510
(F5952.0
I138
tp5511
a(F6061.0
I32
tp5512
aa(lp5513
(F380.0
I140
tp5514
a(F1273.0
I46
tp5515
aa(lp5516
(F620.0
I90
tp5517
a(F2294.0
I37
tp5518
aa(lp5519
(F512.0
I47
tp5520
a(F2114.0
I43
tp5521
aa(lp5522
(F5150.0
I31
tp5523
a(F5511.0
I97
tp5524
aa(lp5525
(F1724.0
I88
tp5526
a(F5189.0
I108
tp5527
aa(lp5528
(F1625.0
I65
tp5529
a(F1731.0
I136
tp5530
aa(lp5531
(F5339.0
I123
tp5532
a(F5371.0
I81
tp5533
aa(lp5534
(F215.0
I132
tp5535
a(F3460.0
I90
tp5536
aa(lp5537
(F4620.0
I102
tp5538
a(F4678.0
I101
tp5539
aa(lp5540
(F5051.0
I75
tp5541
a(F5618.0
I18
tp5542
aa(lp5543
(F803.0
I56
tp5544
a(F1330.0
I103
tp5545
aa(lp5546
(F608.0
I87
tp5547
a(F794.0
I54
tp5548
aa(lp5549
(F2424.0
I104
tp5550
a(F2437.0
I93
tp5551
aa(lp5552
(F3233.0
I28
tp5553
a(F6118.0
I92
tp5554
aa(lp5555
(F251.0
I140
tp5556
a(F404.0
I91
tp5557
aa(lp5558
(F2721.0
I55
tp5559
a(F3066.0
I106
tp5560
aa(lp5561
(F1225.0
I39
tp5562
a(F1439.0
I74
tp5563
aa(lp5564
(F1761.0
I41
tp5565
a(F4126.0
I49
tp5566
aa(lp5567
(F4033.0
I32
tp5568
a(F4403.0
I55
tp5569
aa(lp5570
(F2425.0
I55
tp5571
a(F2749.0
I52
tp5572
aa(lp5573
(F3188.0
I61
tp5574
a(F6238.0
I78
tp5575
aa(lp5576
(F1934.0
I31
tp5577
a(F3716.0
I42
tp5578
aa(lp5579
(F2343.0
I98
tp5580
a(F4359.0
I137
tp5581
aa(lp5582
(F4618.0
I106
tp5583
a(F4856.0
I70
tp5584
aa(lp5585
(F1669.0
I67
tp5586
aa(lp5587
(F4364.0
I59
tp5588
aa(lp5589
(F4262.0
I44
tp5590
aa(lp5591
(F740.0
I55
tp5592
aa(lp5593
(F5890.0
I117
tp5594
aa(lp5595
(F5862.0
I55
tp5596
aa(lp5597
(F3487.0
I98
tp5598
aa(lp5599
(F536.0
I32
tp5600
aa(lp5601
(F3766.0
I132
tp5602
aa(lp5603
(F3352.0
I40
tp5604
aa(lp5605
(F3286.0
I65
tp5606
aa(lp5607
(F330.0
I64
tp5608
aa(lp5609
(F6035.0
I49
tp5610
aa(lp5611
(F1964.0
I63
tp5612
aa(lp5613
(F3546.0
I30
tp5614
aa(lp5615
(F2865.0
I140
tp5616
aa(lp5617
(F4383.0
I8
tp5618
aa(lp5619
(F1467.0
I135
tp5620
aa(lp5621
(F5357.0
I57
tp5622
aa(lp5623
(F3014.0
I140
tp5624
aa(lp5625
(F1010.0
I70
tp5626
aa(lp5627
(F5296.0
I71
tp5628
aa(lp5629
(F574.0
I118
tp5630
aa(lp5631
(F5595.0
I59
tp5632
aa(lp5633
(F5798.0
I83
tp5634
aa(lp5635
(F6179.0
I83
tp5636
aa(lp5637
(F3163.0
I37
tp5638
aa(lp5639
(F4842.0
I65
tp5640
aa(lp5641
(F4273.0
I67
tp5642
aa(lp5643
(F521.0
I36
tp5644
aa(lp5645
(F4091.0
I86
tp5646
aa(lp5647
(F2317.0
I124
tp5648
aa(lp5649
(F2230.0
I83
tp5650
aa(lp5651
(F169.0
I72
tp5652
aa(lp5653
(F5961.0
I19
tp5654
aa(lp5655
(F5602.0
I112
tp5656
aa(lp5657
(F6045.0
I39
tp5658
aa(lp5659
(F622.0
I50
tp5660
aa(lp5661
(F4481.0
I106
tp5662
aa(lp5663
(F781.0
I48
tp5664
aa(lp5665
(F6126.0
I119
tp5666
aa(lp5667
(F1045.0
I56
tp5668
aa(lp5669
(F2737.0
I37
tp5670
aa(lp5671
(F4557.0
I28
tp5672
aa(lp5673
(F2735.0
I87
tp5674
aa(lp5675
(F3821.0
I140
tp5676
aa(lp5677
(F2200.0
I140
tp5678
aa(lp5679
(F3565.0
I36
tp5680
aa(lp5681
(F5559.0
I86
tp5682
aa(lp5683
(F5558.0
I44
tp5684
aa(lp5685
(F5438.0
I140
tp5686
aa(lp5687
(F2627.0
I91
tp5688
aa(lp5689
(F2059.0
I23
tp5690
aa(lp5691
(F55.0
I65
tp5692
aa(lp5693
(F3805.0
I5
tp5694
aa(lp5695
(F84.0
I99
tp5696
aa(lp5697
(F2189.0
I123
tp5698
aa(lp5699
(F2301.0
I84
tp5700
aa(lp5701
(F5427.0
I70
tp5702
aa(lp5703
(F1399.0
I48
tp5704
aa(lp5705
(F1035.0
I52
tp5706
aa(lp5707
(F5806.0
I79
tp5708
aa(lp5709
(F3081.0
I62
tp5710
aa(lp5711
(F3791.0
I26
tp5712
aa(lp5713
(F2748.0
I60
tp5714
aa(lp5715
(F192.0
I32
tp5716
aa(lp5717
(F2153.0
I60
tp5718
aa(lp5719
(F6124.0
I62
tp5720
aa(lp5721
(F5441.0
I82
tp5722
aa(lp5723
(F240.0
I75
tp5724
aa(lp5725
(F2257.0
I70
tp5726
aa(lp5727
(F3533.0
I127
tp5728
aa(lp5729
(F5222.0
I73
tp5730
aa(lp5731
(F6028.0
I58
tp5732
aa(lp5733
(F861.0
I33
tp5734
aa(lp5735
(F3191.0
I85
tp5736
aa(lp5737
(F5500.0
I39
tp5738
aa(lp5739
(F6108.0
I112
tp5740
aa(lp5741
(F29.0
I95
tp5742
aa(lp5743
(F1255.0
I125
tp5744
aa(lp5745
(F1044.0
I49
tp5746
aa(lp5747
(F1508.0
I77
tp5748
aa(lp5749
(F3971.0
I140
tp5750
aa(lp5751
(F32.0
I49
tp5752
aa(lp5753
(F3817.0
I36
tp5754
aa(lp5755
(F2943.0
I87
tp5756
aa(lp5757
(F443.0
I93
tp5758
aa(lp5759
(F1137.0
I103
tp5760
aa(lp5761
(F3554.0
I38
tp5762
aa(lp5763
(F2888.0
I13
tp5764
aa(lp5765
(F6124.0
I121
tp5766
aa(lp5767
(F1161.0
I32
tp5768
aa(lp5769
(F2479.0
I27
tp5770
aa(lp5771
(F4816.0
I140
tp5772
aa(lp5773
(F2767.0
I114
tp5774
aa(lp5775
(F4454.0
I109
tp5776
aa(lp5777
(F2276.0
I93
tp5778
aa(lp5779
(F4439.0
I51
tp5780
aa(lp5781
(F4962.0
I65
tp5782
aa(lp5783
(F2038.0
I110
tp5784
aa(lp5785
(F5395.0
I31
tp5786
aa(lp5787
(F5994.0
I97
tp5788
aa(lp5789
(F828.0
I82
tp5790
aa(lp5791
(F5138.0
I47
tp5792
aa(lp5793
(F732.0
I107
tp5794
aa(lp5795
(F989.0
I131
tp5796
aa(lp5797
(F1779.0
I97
tp5798
aa(lp5799
(F3795.0
I89
tp5800
aa(lp5801
(F1018.0
I43
tp5802
aa(lp5803
(F1727.0
I89
tp5804
aa(lp5805
(F1486.0
I26
tp5806
aa(lp5807
(F3426.0
I119
tp5808
aa(lp5809
(F534.0
I49
tp5810
aa(lp5811
(F5984.0
I140
tp5812
aa(lp5813
(F1074.0
I66
tp5814
aa(lp5815
(F1362.0
I86
tp5816
aa(lp5817
(F1822.0
I55
tp5818
aa(lp5819
(F3219.0
I60
tp5820
aa(lp5821
(F1896.0
I30
tp5822
aa(lp5823
(F1479.0
I57
tp5824
aa(lp5825
(F4143.0
I54
tp5826
aa(lp5827
(F3458.0
I41
tp5828
aa(lp5829
(F1889.0
I46
tp5830
aa(lp5831
(F5318.0
I17
tp5832
aa(lp5833
(F4709.0
I40
tp5834
aa(lp5835
(F3165.0
I127
tp5836
aa(lp5837
(F1492.0
I63
tp5838
aa(lp5839
(F124.0
I125
tp5840
aa(lp5841
(F4907.0
I112
tp5842
aa(lp5843
(F1487.0
I67
tp5844
aa(lp5845
(F564.0
I86
tp5846
aa(lp5847
(F666.0
I133
tp5848
aa(lp5849
(F3689.0
I140
tp5850
aa(lp5851
(F1521.0
I14
tp5852
aa(lp5853
(F2936.0
I59
tp5854
aa(lp5855
(F3813.0
I99
tp5856
aa(lp5857
(F5853.0
I82
tp5858
aa(lp5859
(F4461.0
I110
tp5860
aa(lp5861
(F4176.0
I30
tp5862
aa(lp5863
(F2026.0
I51
tp5864
aa(lp5865
(F5077.0
I41
tp5866
aa(lp5867
(F3369.0
I90
tp5868
aa(lp5869
(F1741.0
I134
tp5870
aa(lp5871
(F3388.0
I95
tp5872
aa(lp5873
(F35.0
I58
tp5874
aa(lp5875
(F1627.0
I13
tp5876
aa(lp5877
(F6008.0
I43
tp5878
aa(lp5879
(F518.0
I117
tp5880
aa(lp5881
(F4718.0
I24
tp5882
aa(lp5883
(F4391.0
I127
tp5884
aa(lp5885
(F4453.0
I104
tp5886
aa(lp5887
(F4937.0
I98
tp5888
aa(lp5889
(F3916.0
I36
tp5890
aa(lp5891
(F4744.0
I70
tp5892
aa(lp5893
(F1069.0
I16
tp5894
aa(lp5895
(F3509.0
I64
tp5896
aa(lp5897
(F615.0
I131
tp5898
aa(lp5899
(F2579.0
I96
tp5900
aa(lp5901
(F5119.0
I70
tp5902
aa(lp5903
(F2070.0
I59
tp5904
aa(lp5905
(F2409.0
I112
tp5906
aa(lp5907
(F2606.0
I140
tp5908
aa(lp5909
(F5034.0
I56
tp5910
aa(lp5911
(F279.0
I79
tp5912
aa(lp5913
(F3486.0
I65
tp5914
aa(lp5915
(F1977.0
I12
tp5916
aa(lp5917
(F1289.0
I132
tp5918
aa(lp5919
(F5121.0
I70
tp5920
aa(lp5921
(F1067.0
I81
tp5922
aa(lp5923
(F727.0
I130
tp5924
aa(lp5925
(F894.0
I134
tp5926
aa(lp5927
(F2988.0
I83
tp5928
aa(lp5929
(F1118.0
I57
tp5930
aa(lp5931
(F273.0
I59
tp5932
aa(lp5933
(F5228.0
I114
tp5934
aa(lp5935
(F246.0
I102
tp5936
aa(lp5937
(F2222.0
I140
tp5938
aa(lp5939
(F1229.0
I51
tp5940
aa(lp5941
(F2085.0
I140
tp5942
aa(lp5943
(F106.0
I81
tp5944
aa(lp5945
(F1284.0
I42
tp5946
aa(lp5947
(F3772.0
I34
tp5948
aa(lp5949
(F759.0
I92
tp5950
aa(lp5951
(F544.0
I41
tp5952
aa(lp5953
(F5831.0
I122
tp5954
aa(lp5955
(F4120.0
I121
tp5956
aa(lp5957
(F5642.0
I105
tp5958
aa(lp5959
(F1143.0
I53
tp5960
aa(lp5961
(F5672.0
I97
tp5962
aa(lp5963
(F4462.0
I64
tp5964
aa(lp5965
(F3876.0
I15
tp5966
aa(lp5967
(F371.0
I93
tp5968
aa(lp5969
(F223.0
I132
tp5970
aa(lp5971
(F3267.0
I24
tp5972
aa(lp5973
(F4919.0
I56
tp5974
aa(lp5975
(F5076.0
I118
tp5976
aa(lp5977
(F129.0
I71
tp5978
aa(lp5979
(F5793.0
I133
tp5980
aa(lp5981
(F3199.0
I25
tp5982
aa(lp5983
(F3901.0
I123
tp5984
aa(lp5985
(F1169.0
I35
tp5986
aa(lp5987
(F4562.0
I72
tp5988
aa(lp5989
(F1278.0
I106
tp5990
aa(lp5991
(F3259.0
I61
tp5992
aa(lp5993
(F183.0
I24
tp5994
aa(lp5995
(F1155.0
I80
tp5996
aa(lp5997
(F4568.0
I86
tp5998
aa(lp5999
(F3029.0
I120
tp6000
aa(lp6001
(F25.0
I120
tp6002
aa(lp6003
(F2329.0
I140
tp6004
aa(lp6005
(F1488.0
I36
tp6006
aa(lp6007
(F3760.0
I40
tp6008
aa(lp6009
(F2531.0
I53
tp6010
aa(lp6011
(F1729.0
I36
tp6012
aa(lp6013
(F1517.0
I64
tp6014
aa(lp6015
(F198.0
I75
tp6016
aa(lp6017
(F6029.0
I49
tp6018
aa(lp6019
(F3001.0
I54
tp6020
aa(lp6021
(F1824.0
I14
tp6022
aa(lp6023
(F3201.0
I105
tp6024
aa(lp6025
(F6125.0
I78
tp6026
aa(lp6027
(F5809.0
I70
tp6028
aa(lp6029
(F1896.0
I126
tp6030
aa(lp6031
(F1935.0
I126
tp6032
aa(lp6033
(F360.0
I61
tp6034
aa(lp6035
(F2450.0
I20
tp6036
aa(lp6037
(F3444.0
I70
tp6038
aa(lp6039
(F263.0
I57
tp6040
aa(lp6041
(F253.0
I135
tp6042
aa(lp6043
(F3927.0
I88
tp6044
aa(lp6045
(F5490.0
I21
tp6046
aa(lp6047
(F792.0
I107
tp6048
aa(lp6049
(F128.0
I63
tp6050
aa(lp6051
(F4746.0
I140
tp6052
aa(lp6053
(F1702.0
I29
tp6054
aa(lp6055
(F1591.0
I117
tp6056
aa(lp6057
(F5266.0
I74
tp6058
aa(lp6059
(F55.0
I66
tp6060
aa(lp6061
(F3996.0
I135
tp6062
aa(lp6063
(F1837.0
I21
tp6064
aa(lp6065
(F5959.0
I71
tp6066
aa(lp6067
(F23.0
I73
tp6068
aa(lp6069
(F367.0
I24
tp6070
aa(lp6071
(F1241.0
I121
tp6072
aa(lp6073
(F5716.0
I73
tp6074
aa(lp6075
(F4632.0
I55
tp6076
aa(lp6077
(F1640.0
I37
tp6078
aa(lp6079
(F3224.0
I102
tp6080
aa(lp6081
(F910.0
I55
tp6082
aa(lp6083
(F3902.0
I81
tp6084
aa(lp6085
(F3867.0
I93
tp6086
aa(lp6087
(F3744.0
I89
tp6088
aa(lp6089
(F950.0
I45
tp6090
aa(lp6091
(F5487.0
I37
tp6092
aa(lp6093
(F1092.0
I60
tp6094
aa(lp6095
(F3288.0
I31
tp6096
aa(lp6097
(F4974.0
I59
tp6098
aa(lp6099
(F4180.0
I63
tp6100
aa(lp6101
(F2539.0
I84
tp6102
aa(lp6103
(F4885.0
I35
tp6104
aa(lp6105
(F1845.0
I55
tp6106
aa(lp6107
(F4770.0
I54
tp6108
aa(lp6109
(F2121.0
I25
tp6110
aa(lp6111
(F1768.0
I93
tp6112
aa(lp6113
(F5397.0
I101
tp6114
aa(lp6115
(F1385.0
I99
tp6116
aa(lp6117
(F2977.0
I8
tp6118
aa(lp6119
(F3899.0
I19
tp6120
aa(lp6121
(F513.0
I106
tp6122
aa(lp6123
(F2000.0
I133
tp6124
aa(lp6125
(F5470.0
I132
tp6126
aa(lp6127
(F205.0
I36
tp6128
aa(lp6129
(F779.0
I49
tp6130
aa(lp6131
(F4475.0
I108
tp6132
aa(lp6133
(F4711.0
I108
tp6134
aa(lp6135
(F6202.0
I113
tp6136
aa(lp6137
(F2563.0
I27
tp6138
aa(lp6139
(F827.0
I132
tp6140
aa(lp6141
(F5481.0
I124
tp6142
aa(lp6143
(F803.0
I54
tp6144
aa(lp6145
(F1024.0
I126
tp6146
aa(lp6147
(F4192.0
I101
tp6148
aa(lp6149
(F5086.0
I75
tp6150
aa(lp6151
(F1802.0
I100
tp6152
aa(lp6153
(F385.0
I19
tp6154
aa(lp6155
(F902.0
I30
tp6156
aa(lp6157
(F186.0
I83
tp6158
aa(lp6159
(F2928.0
I51
tp6160
aa(lp6161
(F3007.0
I57
tp6162
aa(lp6163
(F3693.0
I40
tp6164
aa(lp6165
(F2905.0
I70
tp6166
aa(lp6167
(F2394.0
I140
tp6168
aa(lp6169
(F67.0
I102
tp6170
aa(lp6171
(F1162.0
I131
tp6172
aa(lp6173
(F440.0
I27
tp6174
aa.